
system:     file format elf32-i386


Disassembly of section .text:

00010000 <main-0x10>:
   10000:	18 66 90             	sbb    %ah,-0x70(%esi)
   10003:	66 90                	xchg   %ax,%ax
   10005:	66 90                	xchg   %ax,%ax
   10007:	66 90                	xchg   %ax,%ax
   10009:	66 90                	xchg   %ax,%ax
   1000b:	66 90                	xchg   %ax,%ax
   1000d:	66 90                	xchg   %ax,%ax
   1000f:	90                   	nop

00010010 <main>:
   10010:	8d 4c 24 04          	lea    0x4(%esp),%ecx
   10014:	83 e4 f0             	and    $0xfffffff0,%esp
   10017:	ff 71 fc             	push   -0x4(%ecx)
   1001a:	55                   	push   %ebp
   1001b:	89 e5                	mov    %esp,%ebp
   1001d:	51                   	push   %ecx
   1001e:	83 ec 04             	sub    $0x4,%esp
   10021:	e8 aa 1a 00 00       	call   11ad0 <set_eflags>
   10026:	b8 18 00 00 00       	mov    $0x18,%eax
   1002b:	fc                   	cld
   1002c:	8e d8                	mov    %eax,%ds
   1002e:	8e c0                	mov    %eax,%es
   10030:	8e e0                	mov    %eax,%fs
   10032:	8e e8                	mov    %eax,%gs
   10034:	8e d0                	mov    %eax,%ss
   10036:	bc ec 9f 01 00       	mov    $0x19fec,%esp
   1003b:	83 ec 0c             	sub    $0xc,%esp
   1003e:	68 77 3a 01 00       	push   $0x13a77
   10043:	e8 28 05 00 00       	call   10570 <printk>
   10048:	e8 e3 14 00 00       	call   11530 <setGdt>
   1004d:	e8 fe 00 00 00       	call   10150 <setIdt>
   10052:	e8 29 15 00 00       	call   11580 <setTSS>
   10057:	e8 24 14 00 00       	call   11480 <init_mm>
   1005c:	e8 e8 20 00 00       	call   12149 <ideinit>
   10061:	e8 5d 28 00 00       	call   128c3 <ide_check_disk>
   10066:	e8 d5 07 00 00       	call   10840 <init_sched>
   1006b:	e8 40 06 00 00       	call   106b0 <init_idle>
   10070:	e8 eb 06 00 00       	call   10760 <init_task1>
   10075:	a1 24 4f 01 00       	mov    0x14f24,%eax
   1007a:	83 c4 0c             	add    $0xc,%esp
   1007d:	ff 30                	push   (%eax)
   1007f:	a1 28 4f 01 00       	mov    0x14f28,%eax
   10084:	ff 35 2c 4f 01 00    	push   0x14f2c
   1008a:	8b 00                	mov    (%eax),%eax
   1008c:	05 00 00 01 00       	add    $0x10000,%eax
   10091:	50                   	push   %eax
   10092:	e8 69 17 00 00       	call   11800 <copy_data>
   10097:	c7 04 24 8a 3a 01 00 	movl   $0x13a8a,(%esp)
   1009e:	e8 cd 04 00 00       	call   10570 <printk>
   100a3:	e8 b8 1a 00 00       	call   11b60 <enable_int>
   100a8:	c7 04 24 00 00 10 00 	movl   $0x100000,(%esp)
   100af:	6a 23                	push   $0x23
   100b1:	68 f0 bf 11 00       	push   $0x11bff0
   100b6:	6a 2b                	push   $0x2b
   100b8:	6a 2b                	push   $0x2b
   100ba:	e8 61 1a 00 00       	call   11b20 <return_gate>
   100bf:	8b 4d fc             	mov    -0x4(%ebp),%ecx
   100c2:	31 c0                	xor    %eax,%eax
   100c4:	c9                   	leave
   100c5:	8d 61 fc             	lea    -0x4(%ecx),%esp
   100c8:	c3                   	ret
   100c9:	66 90                	xchg   %ax,%ax
   100cb:	66 90                	xchg   %ax,%ax
   100cd:	66 90                	xchg   %ax,%ax
   100cf:	90                   	nop

000100d0 <setInterruptHandler>:
   100d0:	55                   	push   %ebp
   100d1:	89 e5                	mov    %esp,%ebp
   100d3:	0f b7 45 10          	movzwl 0x10(%ebp),%eax
   100d7:	8b 55 08             	mov    0x8(%ebp),%edx
   100da:	8b 4d 0c             	mov    0xc(%ebp),%ecx
   100dd:	5d                   	pop    %ebp
   100de:	66 c7 04 d5 e2 4f 01 	movw   $0x10,0x14fe2(,%edx,8)
   100e5:	00 10 00 
   100e8:	c1 e0 0d             	shl    $0xd,%eax
   100eb:	66 89 0c d5 e0 4f 01 	mov    %cx,0x14fe0(,%edx,8)
   100f2:	00 
   100f3:	66 0d 00 8e          	or     $0x8e00,%ax
   100f7:	c1 e9 10             	shr    $0x10,%ecx
   100fa:	66 89 04 d5 e4 4f 01 	mov    %ax,0x14fe4(,%edx,8)
   10101:	00 
   10102:	66 89 0c d5 e6 4f 01 	mov    %cx,0x14fe6(,%edx,8)
   10109:	00 
   1010a:	c3                   	ret
   1010b:	8d 74 26 00          	lea    0x0(%esi,%eiz,1),%esi
   1010f:	90                   	nop

00010110 <setTrapHandler>:
   10110:	55                   	push   %ebp
   10111:	89 e5                	mov    %esp,%ebp
   10113:	0f b7 45 10          	movzwl 0x10(%ebp),%eax
   10117:	8b 55 08             	mov    0x8(%ebp),%edx
   1011a:	8b 4d 0c             	mov    0xc(%ebp),%ecx
   1011d:	5d                   	pop    %ebp
   1011e:	66 c7 04 d5 e2 4f 01 	movw   $0x10,0x14fe2(,%edx,8)
   10125:	00 10 00 
   10128:	c1 e0 0d             	shl    $0xd,%eax
   1012b:	66 89 0c d5 e0 4f 01 	mov    %cx,0x14fe0(,%edx,8)
   10132:	00 
   10133:	66 0d 00 8e          	or     $0x8e00,%ax
   10137:	c1 e9 10             	shr    $0x10,%ecx
   1013a:	66 89 04 d5 e4 4f 01 	mov    %ax,0x14fe4(,%edx,8)
   10141:	00 
   10142:	66 89 0c d5 e6 4f 01 	mov    %cx,0x14fe6(,%edx,8)
   10149:	00 
   1014a:	c3                   	ret
   1014b:	8d 74 26 00          	lea    0x0(%esi,%eiz,1),%esi
   1014f:	90                   	nop

00010150 <setIdt>:
   10150:	55                   	push   %ebp
   10151:	b8 ff 07 00 00       	mov    $0x7ff,%eax
   10156:	89 e5                	mov    %esp,%ebp
   10158:	83 ec 08             	sub    $0x8,%esp
   1015b:	66 a3 c4 4f 01 00    	mov    %ax,0x14fc4
   10161:	c7 05 c6 4f 01 00 e0 	movl   $0x14fe0,0x14fc6
   10168:	4f 01 00 
   1016b:	e8 c0 30 00 00       	call   13230 <set_handlers>
   10170:	b8 fc 02 01 00       	mov    $0x102fc,%eax
   10175:	83 ec 0c             	sub    $0xc,%esp
   10178:	c7 05 ea 50 01 00 10 	movl   $0x8e000010,0x150ea
   1017f:	00 00 8e 
   10182:	66 a3 e8 50 01 00    	mov    %ax,0x150e8
   10188:	c1 e8 10             	shr    $0x10,%eax
   1018b:	66 a3 ee 50 01 00    	mov    %ax,0x150ee
   10191:	b8 35 03 01 00       	mov    $0x10335,%eax
   10196:	66 a3 e0 50 01 00    	mov    %ax,0x150e0
   1019c:	c1 e8 10             	shr    $0x10,%eax
   1019f:	66 a3 e6 50 01 00    	mov    %ax,0x150e6
   101a5:	b8 f5 03 01 00       	mov    $0x103f5,%eax
   101aa:	66 a3 50 50 01 00    	mov    %ax,0x15050
   101b0:	c1 e8 10             	shr    $0x10,%eax
   101b3:	66 a3 56 50 01 00    	mov    %ax,0x15056
   101b9:	b8 a7 03 01 00       	mov    $0x103a7,%eax
   101be:	66 a3 e0 53 01 00    	mov    %ax,0x153e0
   101c4:	c1 e8 10             	shr    $0x10,%eax
   101c7:	c7 05 e2 50 01 00 10 	movl   $0x8e000010,0x150e2
   101ce:	00 00 8e 
   101d1:	c7 05 52 50 01 00 10 	movl   $0x8e000010,0x15052
   101d8:	00 00 8e 
   101db:	c7 05 e2 53 01 00 10 	movl   $0xee000010,0x153e2
   101e2:	00 00 ee 
   101e5:	66 a3 e6 53 01 00    	mov    %ax,0x153e6
   101eb:	68 c4 4f 01 00       	push   $0x14fc4
   101f0:	e8 eb 18 00 00       	call   11ae0 <set_idt_reg>
   101f5:	83 c4 10             	add    $0x10,%esp
   101f8:	c9                   	leave
   101f9:	c3                   	ret
   101fa:	8d b6 00 00 00 00    	lea    0x0(%esi),%esi

00010200 <keyboard_routine>:
   10200:	55                   	push   %ebp
   10201:	89 e5                	mov    %esp,%ebp
   10203:	83 ec 14             	sub    $0x14,%esp
   10206:	6a 60                	push   $0x60
   10208:	e8 93 02 00 00       	call   104a0 <inb>
   1020d:	83 c4 10             	add    $0x10,%esp
   10210:	84 c0                	test   %al,%al
   10212:	78 1e                	js     10232 <keyboard_routine+0x32>
   10214:	0f b6 c0             	movzbl %al,%eax
   10217:	0f be 80 40 4f 01 00 	movsbl 0x14f40(%eax),%eax
   1021e:	84 c0                	test   %al,%al
   10220:	74 16                	je     10238 <keyboard_routine+0x38>
   10222:	83 ec 04             	sub    $0x4,%esp
   10225:	50                   	push   %eax
   10226:	6a 00                	push   $0x0
   10228:	6a 00                	push   $0x0
   1022a:	e8 01 03 00 00       	call   10530 <printc_xy>
   1022f:	83 c4 10             	add    $0x10,%esp
   10232:	c9                   	leave
   10233:	c3                   	ret
   10234:	8d 74 26 00          	lea    0x0(%esi,%eiz,1),%esi
   10238:	83 ec 04             	sub    $0x4,%esp
   1023b:	6a 43                	push   $0x43
   1023d:	6a 00                	push   $0x0
   1023f:	6a 00                	push   $0x0
   10241:	e8 ea 02 00 00       	call   10530 <printc_xy>
   10246:	83 c4 10             	add    $0x10,%esp
   10249:	c9                   	leave
   1024a:	c3                   	ret
   1024b:	8d 74 26 00          	lea    0x0(%esi,%eiz,1),%esi
   1024f:	90                   	nop

00010250 <clock_routine>:
   10250:	55                   	push   %ebp
   10251:	89 e5                	mov    %esp,%ebp
   10253:	83 ec 08             	sub    $0x8,%esp
   10256:	83 05 c0 4f 01 00 01 	addl   $0x1,0x14fc0
   1025d:	e8 5e 2c 00 00       	call   12ec0 <zeos_show_clock>
   10262:	c9                   	leave
   10263:	e9 98 09 00 00       	jmp    10c00 <scheduling>
   10268:	8d b4 26 00 00 00 00 	lea    0x0(%esi,%eiz,1),%esi
   1026f:	90                   	nop

00010270 <mifault_routine>:
   10270:	55                   	push   %ebp
   10271:	89 e5                	mov    %esp,%ebp
   10273:	53                   	push   %ebx
   10274:	8d 5d e4             	lea    -0x1c(%ebp),%ebx
   10277:	83 ec 30             	sub    $0x30,%esp
   1027a:	68 a0 3a 01 00       	push   $0x13aa0
   1027f:	e8 ec 02 00 00       	call   10570 <printk>
   10284:	58                   	pop    %eax
   10285:	5a                   	pop    %edx
   10286:	53                   	push   %ebx
   10287:	ff 75 0c             	push   0xc(%ebp)
   1028a:	e8 61 17 00 00       	call   119f0 <itoahex>
   1028f:	89 04 24             	mov    %eax,(%esp)
   10292:	e8 d9 02 00 00       	call   10570 <printk>
   10297:	c7 04 24 b8 3a 01 00 	movl   $0x13ab8,(%esp)
   1029e:	e8 cd 02 00 00       	call   10570 <printk>
   102a3:	59                   	pop    %ecx
   102a4:	58                   	pop    %eax
   102a5:	53                   	push   %ebx
   102a6:	ff 75 10             	push   0x10(%ebp)
   102a9:	e8 42 17 00 00       	call   119f0 <itoahex>
   102ae:	89 04 24             	mov    %eax,(%esp)
   102b1:	e8 ba 02 00 00       	call   10570 <printk>
   102b6:	c7 04 24 c1 3a 01 00 	movl   $0x13ac1,(%esp)
   102bd:	e8 ae 02 00 00       	call   10570 <printk>
   102c2:	58                   	pop    %eax
   102c3:	5a                   	pop    %edx
   102c4:	53                   	push   %ebx
   102c5:	ff 75 18             	push   0x18(%ebp)
   102c8:	e8 23 17 00 00       	call   119f0 <itoahex>
   102cd:	89 04 24             	mov    %eax,(%esp)
   102d0:	e8 9b 02 00 00       	call   10570 <printk>
   102d5:	c7 04 24 ca 3a 01 00 	movl   $0x13aca,(%esp)
   102dc:	e8 8f 02 00 00       	call   10570 <printk>
   102e1:	59                   	pop    %ecx
   102e2:	58                   	pop    %eax
   102e3:	53                   	push   %ebx
   102e4:	ff 75 1c             	push   0x1c(%ebp)
   102e7:	e8 04 17 00 00       	call   119f0 <itoahex>
   102ec:	89 04 24             	mov    %eax,(%esp)
   102ef:	e8 7c 02 00 00       	call   10570 <printk>
   102f4:	8b 5d fc             	mov    -0x4(%ebp),%ebx
   102f7:	83 c4 10             	add    $0x10,%esp
   102fa:	c9                   	leave
   102fb:	c3                   	ret

000102fc <keyboard_handler>:
   102fc:	0f a8                	push   %gs
   102fe:	0f a0                	push   %fs
   10300:	06                   	push   %es
   10301:	1e                   	push   %ds
   10302:	50                   	push   %eax
   10303:	55                   	push   %ebp
   10304:	57                   	push   %edi
   10305:	56                   	push   %esi
   10306:	52                   	push   %edx
   10307:	51                   	push   %ecx
   10308:	53                   	push   %ebx
   10309:	ba 18 00 00 00       	mov    $0x18,%edx
   1030e:	8e da                	mov    %edx,%ds
   10310:	8e c2                	mov    %edx,%es
   10312:	50                   	push   %eax
   10313:	e8 38 06 00 00       	call   10950 <user2system>
   10318:	58                   	pop    %eax
   10319:	b0 20                	mov    $0x20,%al
   1031b:	e6 20                	out    %al,$0x20
   1031d:	e8 de fe ff ff       	call   10200 <keyboard_routine>
   10322:	e8 59 06 00 00       	call   10980 <system2user>
   10327:	5b                   	pop    %ebx
   10328:	59                   	pop    %ecx
   10329:	5a                   	pop    %edx
   1032a:	5e                   	pop    %esi
   1032b:	5f                   	pop    %edi
   1032c:	5d                   	pop    %ebp
   1032d:	58                   	pop    %eax
   1032e:	1f                   	pop    %ds
   1032f:	07                   	pop    %es
   10330:	0f a1                	pop    %fs
   10332:	0f a9                	pop    %gs
   10334:	cf                   	iret

00010335 <clock_handler>:
   10335:	0f a8                	push   %gs
   10337:	0f a0                	push   %fs
   10339:	06                   	push   %es
   1033a:	1e                   	push   %ds
   1033b:	50                   	push   %eax
   1033c:	55                   	push   %ebp
   1033d:	57                   	push   %edi
   1033e:	56                   	push   %esi
   1033f:	52                   	push   %edx
   10340:	51                   	push   %ecx
   10341:	53                   	push   %ebx
   10342:	ba 18 00 00 00       	mov    $0x18,%edx
   10347:	8e da                	mov    %edx,%ds
   10349:	8e c2                	mov    %edx,%es
   1034b:	50                   	push   %eax
   1034c:	e8 ff 05 00 00       	call   10950 <user2system>
   10351:	58                   	pop    %eax
   10352:	b0 20                	mov    $0x20,%al
   10354:	e6 20                	out    %al,$0x20
   10356:	e8 f5 fe ff ff       	call   10250 <clock_routine>
   1035b:	e8 20 06 00 00       	call   10980 <system2user>
   10360:	5b                   	pop    %ebx
   10361:	59                   	pop    %ecx
   10362:	5a                   	pop    %edx
   10363:	5e                   	pop    %esi
   10364:	5f                   	pop    %edi
   10365:	5d                   	pop    %ebp
   10366:	58                   	pop    %eax
   10367:	1f                   	pop    %ds
   10368:	07                   	pop    %es
   10369:	0f a1                	pop    %fs
   1036b:	0f a9                	pop    %gs
   1036d:	cf                   	iret

0001036e <ide_handler>:
   1036e:	0f a8                	push   %gs
   10370:	0f a0                	push   %fs
   10372:	06                   	push   %es
   10373:	1e                   	push   %ds
   10374:	50                   	push   %eax
   10375:	55                   	push   %ebp
   10376:	57                   	push   %edi
   10377:	56                   	push   %esi
   10378:	52                   	push   %edx
   10379:	51                   	push   %ecx
   1037a:	53                   	push   %ebx
   1037b:	ba 18 00 00 00       	mov    $0x18,%edx
   10380:	8e da                	mov    %edx,%ds
   10382:	8e c2                	mov    %edx,%es
   10384:	50                   	push   %eax
   10385:	e8 c6 05 00 00       	call   10950 <user2system>
   1038a:	58                   	pop    %eax
   1038b:	b0 20                	mov    $0x20,%al
   1038d:	e6 20                	out    %al,$0x20
   1038f:	e8 af 24 00 00       	call   12843 <ide_routine>
   10394:	e8 e7 05 00 00       	call   10980 <system2user>
   10399:	5b                   	pop    %ebx
   1039a:	59                   	pop    %ecx
   1039b:	5a                   	pop    %edx
   1039c:	5e                   	pop    %esi
   1039d:	5f                   	pop    %edi
   1039e:	5d                   	pop    %ebp
   1039f:	58                   	pop    %eax
   103a0:	1f                   	pop    %ds
   103a1:	07                   	pop    %es
   103a2:	0f a1                	pop    %fs
   103a4:	0f a9                	pop    %gs
   103a6:	cf                   	iret

000103a7 <system_call_handler>:
   103a7:	0f a8                	push   %gs
   103a9:	0f a0                	push   %fs
   103ab:	06                   	push   %es
   103ac:	1e                   	push   %ds
   103ad:	50                   	push   %eax
   103ae:	55                   	push   %ebp
   103af:	57                   	push   %edi
   103b0:	56                   	push   %esi
   103b1:	52                   	push   %edx
   103b2:	51                   	push   %ecx
   103b3:	53                   	push   %ebx
   103b4:	ba 18 00 00 00       	mov    $0x18,%edx
   103b9:	8e da                	mov    %edx,%ds
   103bb:	8e c2                	mov    %edx,%es
   103bd:	50                   	push   %eax
   103be:	e8 8d 05 00 00       	call   10950 <user2system>
   103c3:	58                   	pop    %eax
   103c4:	83 f8 00             	cmp    $0x0,%eax
   103c7:	7c 10                	jl     103d9 <err>
   103c9:	3d 29 00 00 00       	cmp    $0x29,%eax
   103ce:	7f 09                	jg     103d9 <err>
   103d0:	ff 14 85 fb 03 01 00 	call   *0x103fb(,%eax,4)
   103d7:	eb 05                	jmp    103de <fin>

000103d9 <err>:
   103d9:	b8 da ff ff ff       	mov    $0xffffffda,%eax

000103de <fin>:
   103de:	89 44 24 18          	mov    %eax,0x18(%esp)
   103e2:	e8 99 05 00 00       	call   10980 <system2user>
   103e7:	5b                   	pop    %ebx
   103e8:	59                   	pop    %ecx
   103e9:	5a                   	pop    %edx
   103ea:	5e                   	pop    %esi
   103eb:	5f                   	pop    %edi
   103ec:	5d                   	pop    %ebp
   103ed:	58                   	pop    %eax
   103ee:	1f                   	pop    %ds
   103ef:	07                   	pop    %es
   103f0:	0f a1                	pop    %fs
   103f2:	0f a9                	pop    %gs
   103f4:	cf                   	iret

000103f5 <mifault_handler>:
   103f5:	e8 76 fe ff ff       	call   10270 <mifault_routine>
   103fa:	f4                   	hlt

000103fb <sys_call_table>:
   103fb:	e0 0c                	loopne 10409 <sys_call_table+0xe>
   103fd:	01 00                	add    %eax,(%eax)
   103ff:	10 10                	adc    %dl,(%eax)
   10401:	01 00                	add    %eax,(%eax)
   10403:	00 0e                	add    %cl,(%esi)
   10405:	01 00                	add    %eax,(%eax)
   10407:	90                   	nop
   10408:	10 01                	adc    %al,(%ecx)
   1040a:	00 00                	add    %al,(%eax)
   1040c:	0d 01 00 e0 0c       	or     $0xce00001,%eax
   10411:	01 00                	add    %eax,(%eax)
   10413:	e0 0c                	loopne 10421 <sys_call_table+0x26>
   10415:	01 00                	add    %eax,(%eax)
   10417:	e0 0c                	loopne 10425 <sys_call_table+0x2a>
   10419:	01 00                	add    %eax,(%eax)
   1041b:	e0 0c                	loopne 10429 <sys_call_table+0x2e>
   1041d:	01 00                	add    %eax,(%eax)
   1041f:	e0 0c                	loopne 1042d <sys_call_table+0x32>
   10421:	01 00                	add    %eax,(%eax)
   10423:	f0 0c 01             	lock or $0x1,%al
   10426:	00 e0                	add    %ah,%al
   10428:	0c 01                	or     $0x1,%al
   1042a:	00 e0                	add    %ah,%al
   1042c:	0c 01                	or     $0x1,%al
   1042e:	00 e0                	add    %ah,%al
   10430:	0c 01                	or     $0x1,%al
   10432:	00 e0                	add    %ah,%al
   10434:	0c 01                	or     $0x1,%al
   10436:	00 e0                	add    %ah,%al
   10438:	0c 01                	or     $0x1,%al
   1043a:	00 e0                	add    %ah,%al
   1043c:	0c 01                	or     $0x1,%al
   1043e:	00 e0                	add    %ah,%al
   10440:	0c 01                	or     $0x1,%al
   10442:	00 e0                	add    %ah,%al
   10444:	0c 01                	or     $0x1,%al
   10446:	00 40 11             	add    %al,0x11(%eax)
   10449:	01 00                	add    %eax,(%eax)
   1044b:	f0 0d 01 00 80 12    	lock or $0x12800001,%eax
   10451:	01 00                	add    %eax,(%eax)
   10453:	90                   	nop
   10454:	12 01                	adc    (%ecx),%al
   10456:	00 a0 12 01 00 b0    	add    %ah,-0x4ffffeee(%eax)
   1045c:	12 01                	adc    (%ecx),%al
   1045e:	00 e0                	add    %ah,%al
   10460:	0c 01                	or     $0x1,%al
   10462:	00 e0                	add    %ah,%al
   10464:	0c 01                	or     $0x1,%al
   10466:	00 e0                	add    %ah,%al
   10468:	0c 01                	or     $0x1,%al
   1046a:	00 e0                	add    %ah,%al
   1046c:	0c 01                	or     $0x1,%al
   1046e:	00 e0                	add    %ah,%al
   10470:	0c 01                	or     $0x1,%al
   10472:	00 e0                	add    %ah,%al
   10474:	0c 01                	or     $0x1,%al
   10476:	00 e0                	add    %ah,%al
   10478:	0c 01                	or     $0x1,%al
   1047a:	00 e0                	add    %ah,%al
   1047c:	0c 01                	or     $0x1,%al
   1047e:	00 e0                	add    %ah,%al
   10480:	0c 01                	or     $0x1,%al
   10482:	00 e0                	add    %ah,%al
   10484:	0c 01                	or     $0x1,%al
   10486:	00 e0                	add    %ah,%al
   10488:	0c 01                	or     $0x1,%al
   1048a:	00 e0                	add    %ah,%al
   1048c:	0c 01                	or     $0x1,%al
   1048e:	00 e0                	add    %ah,%al
   10490:	0c 01                	or     $0x1,%al
   10492:	00 e0                	add    %ah,%al
   10494:	0c 01                	or     $0x1,%al
   10496:	00 e0                	add    %ah,%al
   10498:	0c 01                	or     $0x1,%al
   1049a:	00 e0                	add    %ah,%al
   1049c:	0c 01                	or     $0x1,%al
   1049e:	00                   	.byte 0x0
   1049f:	90                   	nop

000104a0 <inb>:
   104a0:	55                   	push   %ebp
   104a1:	89 e5                	mov    %esp,%ebp
   104a3:	8b 55 08             	mov    0x8(%ebp),%edx
   104a6:	ec                   	in     (%dx),%al
   104a7:	5d                   	pop    %ebp
   104a8:	c3                   	ret
   104a9:	8d b4 26 00 00 00 00 	lea    0x0(%esi,%eiz,1),%esi

000104b0 <printc>:
   104b0:	55                   	push   %ebp
   104b1:	89 e5                	mov    %esp,%ebp
   104b3:	56                   	push   %esi
   104b4:	53                   	push   %ebx
   104b5:	8b 45 08             	mov    0x8(%ebp),%eax
   104b8:	88 c0                	mov    %al,%al
   104ba:	e6 e9                	out    %al,$0xe9
   104bc:	0f b6 15 a2 4f 01 00 	movzbl 0x14fa2,%edx
   104c3:	3c 0a                	cmp    $0xa,%al
   104c5:	74 27                	je     104ee <printc+0x3e>
   104c7:	0f b6 35 e0 57 01 00 	movzbl 0x157e0,%esi
   104ce:	8d 0c 92             	lea    (%edx,%edx,4),%ecx
   104d1:	0f b6 c0             	movzbl %al,%eax
   104d4:	c1 e1 04             	shl    $0x4,%ecx
   104d7:	80 cc 02             	or     $0x2,%ah
   104da:	89 f3                	mov    %esi,%ebx
   104dc:	01 f1                	add    %esi,%ecx
   104de:	83 c3 01             	add    $0x1,%ebx
   104e1:	66 89 84 09 00 80 0b 	mov    %ax,0xb8000(%ecx,%ecx,1)
   104e8:	00 
   104e9:	80 fb 4f             	cmp    $0x4f,%bl
   104ec:	76 2a                	jbe    10518 <printc+0x68>
   104ee:	8d 4a 01             	lea    0x1(%edx),%ecx
   104f1:	b8 1f 85 eb 51       	mov    $0x51eb851f,%eax
   104f6:	5b                   	pop    %ebx
   104f7:	c6 05 e0 57 01 00 00 	movb   $0x0,0x157e0
   104fe:	f7 e1                	mul    %ecx
   10500:	5e                   	pop    %esi
   10501:	5d                   	pop    %ebp
   10502:	c1 ea 03             	shr    $0x3,%edx
   10505:	8d 04 92             	lea    (%edx,%edx,4),%eax
   10508:	8d 04 80             	lea    (%eax,%eax,4),%eax
   1050b:	29 c1                	sub    %eax,%ecx
   1050d:	88 0d a2 4f 01 00    	mov    %cl,0x14fa2
   10513:	c3                   	ret
   10514:	8d 74 26 00          	lea    0x0(%esi,%eiz,1),%esi
   10518:	88 1d e0 57 01 00    	mov    %bl,0x157e0
   1051e:	5b                   	pop    %ebx
   1051f:	5e                   	pop    %esi
   10520:	5d                   	pop    %ebp
   10521:	c3                   	ret
   10522:	8d b4 26 00 00 00 00 	lea    0x0(%esi,%eiz,1),%esi
   10529:	8d b4 26 00 00 00 00 	lea    0x0(%esi,%eiz,1),%esi

00010530 <printc_xy>:
   10530:	55                   	push   %ebp
   10531:	89 e5                	mov    %esp,%ebp
   10533:	8b 4d 08             	mov    0x8(%ebp),%ecx
   10536:	8b 55 0c             	mov    0xc(%ebp),%edx
   10539:	8b 45 10             	mov    0x10(%ebp),%eax
   1053c:	88 c0                	mov    %al,%al
   1053e:	e6 e9                	out    %al,$0xe9
   10540:	3c 0a                	cmp    $0xa,%al
   10542:	74 1c                	je     10560 <printc_xy+0x30>
   10544:	0f b6 d2             	movzbl %dl,%edx
   10547:	0f b6 c9             	movzbl %cl,%ecx
   1054a:	0f b6 c0             	movzbl %al,%eax
   1054d:	8d 14 92             	lea    (%edx,%edx,4),%edx
   10550:	80 cc 02             	or     $0x2,%ah
   10553:	c1 e2 04             	shl    $0x4,%edx
   10556:	01 ca                	add    %ecx,%edx
   10558:	66 89 84 12 00 80 0b 	mov    %ax,0xb8000(%edx,%edx,1)
   1055f:	00 
   10560:	5d                   	pop    %ebp
   10561:	c3                   	ret
   10562:	8d b4 26 00 00 00 00 	lea    0x0(%esi,%eiz,1),%esi
   10569:	8d b4 26 00 00 00 00 	lea    0x0(%esi,%eiz,1),%esi

00010570 <printk>:
   10570:	55                   	push   %ebp
   10571:	89 e5                	mov    %esp,%ebp
   10573:	57                   	push   %edi
   10574:	56                   	push   %esi
   10575:	53                   	push   %ebx
   10576:	8b 5d 08             	mov    0x8(%ebp),%ebx
   10579:	0f b6 03             	movzbl (%ebx),%eax
   1057c:	83 c3 01             	add    $0x1,%ebx
   1057f:	84 c0                	test   %al,%al
   10581:	74 7e                	je     10601 <printk+0x91>
   10583:	bf 1f 85 eb 51       	mov    $0x51eb851f,%edi
   10588:	eb 3e                	jmp    105c8 <printk+0x58>
   1058a:	8d b6 00 00 00 00    	lea    0x0(%esi),%esi
   10590:	0f b6 35 e0 57 01 00 	movzbl 0x157e0,%esi
   10597:	8d 0c 92             	lea    (%edx,%edx,4),%ecx
   1059a:	80 cc 02             	or     $0x2,%ah
   1059d:	c1 e1 04             	shl    $0x4,%ecx
   105a0:	01 f1                	add    %esi,%ecx
   105a2:	66 89 84 09 00 80 0b 	mov    %ax,0xb8000(%ecx,%ecx,1)
   105a9:	00 
   105aa:	0f b6 05 e0 57 01 00 	movzbl 0x157e0,%eax
   105b1:	83 c0 01             	add    $0x1,%eax
   105b4:	3c 4f                	cmp    $0x4f,%al
   105b6:	77 1f                	ja     105d7 <printk+0x67>
   105b8:	83 c3 01             	add    $0x1,%ebx
   105bb:	a2 e0 57 01 00       	mov    %al,0x157e0
   105c0:	0f b6 43 ff          	movzbl -0x1(%ebx),%eax
   105c4:	84 c0                	test   %al,%al
   105c6:	74 39                	je     10601 <printk+0x91>
   105c8:	88 c0                	mov    %al,%al
   105ca:	e6 e9                	out    %al,$0xe9
   105cc:	0f b6 15 a2 4f 01 00 	movzbl 0x14fa2,%edx
   105d3:	3c 0a                	cmp    $0xa,%al
   105d5:	75 b9                	jne    10590 <printk+0x20>
   105d7:	8d 4a 01             	lea    0x1(%edx),%ecx
   105da:	83 c3 01             	add    $0x1,%ebx
   105dd:	c6 05 e0 57 01 00 00 	movb   $0x0,0x157e0
   105e4:	89 c8                	mov    %ecx,%eax
   105e6:	f7 e7                	mul    %edi
   105e8:	c1 ea 03             	shr    $0x3,%edx
   105eb:	8d 04 92             	lea    (%edx,%edx,4),%eax
   105ee:	8d 04 80             	lea    (%eax,%eax,4),%eax
   105f1:	29 c1                	sub    %eax,%ecx
   105f3:	88 0d a2 4f 01 00    	mov    %cl,0x14fa2
   105f9:	0f b6 43 ff          	movzbl -0x1(%ebx),%eax
   105fd:	84 c0                	test   %al,%al
   105ff:	75 c7                	jne    105c8 <printk+0x58>
   10601:	5b                   	pop    %ebx
   10602:	5e                   	pop    %esi
   10603:	5f                   	pop    %edi
   10604:	5d                   	pop    %ebp
   10605:	c3                   	ret
   10606:	66 90                	xchg   %ax,%ax
   10608:	66 90                	xchg   %ax,%ax
   1060a:	66 90                	xchg   %ax,%ax
   1060c:	66 90                	xchg   %ax,%ax
   1060e:	66 90                	xchg   %ax,%ax

00010610 <cpu_idle>:
   10610:	fb                   	sti
   10611:	eb fe                	jmp    10611 <cpu_idle+0x1>
   10613:	8d b4 26 00 00 00 00 	lea    0x0(%esi,%eiz,1),%esi
   1061a:	8d b6 00 00 00 00    	lea    0x0(%esi),%esi

00010620 <list_head_to_task_struct>:
   10620:	55                   	push   %ebp
   10621:	89 e5                	mov    %esp,%ebp
   10623:	8b 45 08             	mov    0x8(%ebp),%eax
   10626:	5d                   	pop    %ebp
   10627:	83 e8 08             	sub    $0x8,%eax
   1062a:	c3                   	ret
   1062b:	8d 74 26 00          	lea    0x0(%esi,%eiz,1),%esi
   1062f:	90                   	nop

00010630 <get_DIR>:
   10630:	55                   	push   %ebp
   10631:	89 e5                	mov    %esp,%ebp
   10633:	8b 45 08             	mov    0x8(%ebp),%eax
   10636:	5d                   	pop    %ebp
   10637:	8b 40 14             	mov    0x14(%eax),%eax
   1063a:	c3                   	ret
   1063b:	8d 74 26 00          	lea    0x0(%esi,%eiz,1),%esi
   1063f:	90                   	nop

00010640 <get_PT>:
   10640:	55                   	push   %ebp
   10641:	89 e5                	mov    %esp,%ebp
   10643:	8b 45 08             	mov    0x8(%ebp),%eax
   10646:	5d                   	pop    %ebp
   10647:	8b 40 14             	mov    0x14(%eax),%eax
   1064a:	8b 00                	mov    (%eax),%eax
   1064c:	25 00 f0 ff ff       	and    $0xfffff000,%eax
   10651:	c3                   	ret
   10652:	8d b4 26 00 00 00 00 	lea    0x0(%esi,%eiz,1),%esi
   10659:	8d b4 26 00 00 00 00 	lea    0x0(%esi,%eiz,1),%esi

00010660 <allocate_DIR>:
   10660:	31 c0                	xor    %eax,%eax
   10662:	8d b6 00 00 00 00    	lea    0x0(%esi),%esi
   10668:	8b 14 85 20 58 01 00 	mov    0x15820(,%eax,4),%edx
   1066f:	85 d2                	test   %edx,%edx
   10671:	74 15                	je     10688 <allocate_DIR+0x28>
   10673:	83 c0 01             	add    $0x1,%eax
   10676:	83 f8 0a             	cmp    $0xa,%eax
   10679:	75 ed                	jne    10668 <allocate_DIR+0x8>
   1067b:	b8 ff ff ff ff       	mov    $0xffffffff,%eax
   10680:	c3                   	ret
   10681:	8d b4 26 00 00 00 00 	lea    0x0(%esi,%eiz,1),%esi
   10688:	55                   	push   %ebp
   10689:	89 c2                	mov    %eax,%edx
   1068b:	c7 04 85 20 58 01 00 	movl   $0x1,0x15820(,%eax,4)
   10692:	01 00 00 00 
   10696:	c1 e2 0c             	shl    $0xc,%edx
   10699:	81 c2 00 a0 02 00    	add    $0x2a000,%edx
   1069f:	89 e5                	mov    %esp,%ebp
   106a1:	8b 4d 08             	mov    0x8(%ebp),%ecx
   106a4:	89 51 14             	mov    %edx,0x14(%ecx)
   106a7:	5d                   	pop    %ebp
   106a8:	c3                   	ret
   106a9:	8d b4 26 00 00 00 00 	lea    0x0(%esi,%eiz,1),%esi

000106b0 <init_idle>:
   106b0:	55                   	push   %ebp
   106b1:	89 e5                	mov    %esp,%ebp
   106b3:	53                   	push   %ebx
   106b4:	83 ec 10             	sub    $0x10,%esp
   106b7:	8b 1d 58 58 01 00    	mov    0x15858,%ebx
   106bd:	53                   	push   %ebx
   106be:	e8 4d 15 00 00       	call   11c10 <list_del>
   106c3:	a1 00 58 01 00       	mov    0x15800,%eax
   106c8:	8d 53 f8             	lea    -0x8(%ebx),%edx
   106cb:	83 c4 10             	add    $0x10,%esp
   106ce:	8d 48 01             	lea    0x1(%eax),%ecx
   106d1:	89 0d 00 58 01 00    	mov    %ecx,0x15800
   106d7:	89 43 f8             	mov    %eax,-0x8(%ebx)
   106da:	31 c0                	xor    %eax,%eax
   106dc:	8d 74 26 00          	lea    0x0(%esi,%eiz,1),%esi
   106e0:	8b 0c 85 20 58 01 00 	mov    0x15820(,%eax,4),%ecx
   106e7:	85 c9                	test   %ecx,%ecx
   106e9:	74 5d                	je     10748 <init_idle+0x98>
   106eb:	83 c0 01             	add    $0x1,%eax
   106ee:	83 f8 0a             	cmp    $0xa,%eax
   106f1:	75 ed                	jne    106e0 <init_idle+0x30>
   106f3:	8d 83 f0 0f 00 00    	lea    0xff0(%ebx),%eax
   106f9:	66 0f ef c0          	pxor   %xmm0,%xmm0
   106fd:	89 15 48 58 01 00    	mov    %edx,0x15848
   10703:	c7 83 f4 0f 00 00 10 	movl   $0x10610,0xff4(%ebx)
   1070a:	06 01 00 
   1070d:	c7 83 f0 0f 00 00 00 	movl   $0x0,0xff0(%ebx)
   10714:	00 00 00 
   10717:	89 43 08             	mov    %eax,0x8(%ebx)
   1071a:	0f 11 43 10          	movups %xmm0,0x10(%ebx)
   1071e:	e8 8d 12 00 00       	call   119b0 <get_ticks>
   10723:	c7 43 24 00 00 00 00 	movl   $0x0,0x24(%ebx)
   1072a:	89 43 20             	mov    %eax,0x20(%ebx)
   1072d:	e8 7e 12 00 00       	call   119b0 <get_ticks>
   10732:	c7 43 fc 1e 00 00 00 	movl   $0x1e,-0x4(%ebx)
   10739:	89 43 28             	mov    %eax,0x28(%ebx)
   1073c:	8b 5d fc             	mov    -0x4(%ebp),%ebx
   1073f:	c9                   	leave
   10740:	c3                   	ret
   10741:	8d b4 26 00 00 00 00 	lea    0x0(%esi,%eiz,1),%esi
   10748:	c7 04 85 20 58 01 00 	movl   $0x1,0x15820(,%eax,4)
   1074f:	01 00 00 00 
   10753:	c1 e0 0c             	shl    $0xc,%eax
   10756:	05 00 a0 02 00       	add    $0x2a000,%eax
   1075b:	89 43 0c             	mov    %eax,0xc(%ebx)
   1075e:	eb 93                	jmp    106f3 <init_idle+0x43>

00010760 <init_task1>:
   10760:	55                   	push   %ebp
   10761:	89 e5                	mov    %esp,%ebp
   10763:	53                   	push   %ebx
   10764:	83 ec 10             	sub    $0x10,%esp
   10767:	8b 1d 58 58 01 00    	mov    0x15858,%ebx
   1076d:	53                   	push   %ebx
   1076e:	e8 9d 14 00 00       	call   11c10 <list_del>
   10773:	a1 00 58 01 00       	mov    0x15800,%eax
   10778:	8d 53 f8             	lea    -0x8(%ebx),%edx
   1077b:	83 c4 10             	add    $0x10,%esp
   1077e:	8d 48 01             	lea    0x1(%eax),%ecx
   10781:	89 0d 00 58 01 00    	mov    %ecx,0x15800
   10787:	89 43 f8             	mov    %eax,-0x8(%ebx)
   1078a:	31 c0                	xor    %eax,%eax
   1078c:	8d 74 26 00          	lea    0x0(%esi,%eiz,1),%esi
   10790:	8b 0c 85 20 58 01 00 	mov    0x15820(,%eax,4),%ecx
   10797:	85 c9                	test   %ecx,%ecx
   10799:	74 65                	je     10800 <init_task1+0xa0>
   1079b:	83 c0 01             	add    $0x1,%eax
   1079e:	83 f8 0a             	cmp    $0xa,%eax
   107a1:	75 ed                	jne    10790 <init_task1+0x30>
   107a3:	83 ec 0c             	sub    $0xc,%esp
   107a6:	52                   	push   %edx
   107a7:	e8 f4 0b 00 00       	call   113a0 <set_user_pages>
   107ac:	58                   	pop    %eax
   107ad:	ff 73 0c             	push   0xc(%ebx)
   107b0:	e8 ab 0c 00 00       	call   11460 <set_cr3>
   107b5:	8d 83 f8 0f 00 00    	lea    0xff8(%ebx),%eax
   107bb:	66 0f ef c0          	pxor   %xmm0,%xmm0
   107bf:	a3 64 58 01 00       	mov    %eax,0x15864
   107c4:	c7 43 fc 1e 00 00 00 	movl   $0x1e,-0x4(%ebx)
   107cb:	0f 11 43 10          	movups %xmm0,0x10(%ebx)
   107cf:	c7 05 4c 58 01 00 1e 	movl   $0x1e,0x1584c
   107d6:	00 00 00 
   107d9:	e8 d2 11 00 00       	call   119b0 <get_ticks>
   107de:	c7 43 24 00 00 00 00 	movl   $0x0,0x24(%ebx)
   107e5:	89 43 20             	mov    %eax,0x20(%ebx)
   107e8:	e8 c3 11 00 00       	call   119b0 <get_ticks>
   107ed:	83 c4 10             	add    $0x10,%esp
   107f0:	89 43 28             	mov    %eax,0x28(%ebx)
   107f3:	8b 5d fc             	mov    -0x4(%ebp),%ebx
   107f6:	c9                   	leave
   107f7:	c3                   	ret
   107f8:	8d b4 26 00 00 00 00 	lea    0x0(%esi,%eiz,1),%esi
   107ff:	90                   	nop
   10800:	c7 04 85 20 58 01 00 	movl   $0x1,0x15820(,%eax,4)
   10807:	01 00 00 00 
   1080b:	c1 e0 0c             	shl    $0xc,%eax
   1080e:	05 00 a0 02 00       	add    $0x2a000,%eax
   10813:	89 43 0c             	mov    %eax,0xc(%ebx)
   10816:	eb 8b                	jmp    107a3 <init_task1+0x43>
   10818:	8d b4 26 00 00 00 00 	lea    0x0(%esi,%eiz,1),%esi
   1081f:	90                   	nop

00010820 <set_quantum>:
   10820:	55                   	push   %ebp
   10821:	89 e5                	mov    %esp,%ebp
   10823:	8b 45 08             	mov    0x8(%ebp),%eax
   10826:	8b 55 0c             	mov    0xc(%ebp),%edx
   10829:	89 50 04             	mov    %edx,0x4(%eax)
   1082c:	5d                   	pop    %ebp
   1082d:	c3                   	ret
   1082e:	66 90                	xchg   %ax,%ax

00010830 <get_quantum>:
   10830:	55                   	push   %ebp
   10831:	89 e5                	mov    %esp,%ebp
   10833:	8b 45 08             	mov    0x8(%ebp),%eax
   10836:	5d                   	pop    %ebp
   10837:	8b 40 04             	mov    0x4(%eax),%eax
   1083a:	c3                   	ret
   1083b:	8d 74 26 00          	lea    0x0(%esi,%eiz,1),%esi
   1083f:	90                   	nop

00010840 <init_sched>:
   10840:	55                   	push   %ebp
   10841:	89 e5                	mov    %esp,%ebp
   10843:	56                   	push   %esi
   10844:	be 08 60 01 00       	mov    $0x16008,%esi
   10849:	53                   	push   %ebx
   1084a:	31 db                	xor    %ebx,%ebx
   1084c:	83 ec 0c             	sub    $0xc,%esp
   1084f:	68 58 58 01 00       	push   $0x15858
   10854:	e8 37 13 00 00       	call   11b90 <INIT_LIST_HEAD>
   10859:	c7 04 24 50 58 01 00 	movl   $0x15850,(%esp)
   10860:	e8 2b 13 00 00       	call   11b90 <INIT_LIST_HEAD>
   10865:	83 c4 10             	add    $0x10,%esp
   10868:	8d b4 26 00 00 00 00 	lea    0x0(%esi,%eiz,1),%esi
   1086f:	90                   	nop
   10870:	83 ec 08             	sub    $0x8,%esp
   10873:	c7 46 f8 ff ff ff ff 	movl   $0xffffffff,-0x8(%esi)
   1087a:	68 58 58 01 00       	push   $0x15858
   1087f:	56                   	push   %esi
   10880:	81 c6 00 10 00 00    	add    $0x1000,%esi
   10886:	e8 25 13 00 00       	call   11bb0 <list_add>
   1088b:	83 c4 10             	add    $0x10,%esp
   1088e:	c7 04 9d 20 58 01 00 	movl   $0x0,0x15820(,%ebx,4)
   10895:	00 00 00 00 
   10899:	83 c3 01             	add    $0x1,%ebx
   1089c:	83 fb 0a             	cmp    $0xa,%ebx
   1089f:	75 cf                	jne    10870 <init_sched+0x30>
   108a1:	8d 65 f8             	lea    -0x8(%ebp),%esp
   108a4:	5b                   	pop    %ebx
   108a5:	5e                   	pop    %esi
   108a6:	5d                   	pop    %ebp
   108a7:	e9 b4 13 00 00       	jmp    11c60 <initialize_sem>
   108ac:	8d 74 26 00          	lea    0x0(%esi,%eiz,1),%esi

000108b0 <current>:
   108b0:	89 e0                	mov    %esp,%eax
   108b2:	25 00 f0 ff ff       	and    $0xfffff000,%eax
   108b7:	c3                   	ret
   108b8:	8d b4 26 00 00 00 00 	lea    0x0(%esi,%eiz,1),%esi
   108bf:	90                   	nop

000108c0 <finishUserTime>:
   108c0:	55                   	push   %ebp
   108c1:	89 e5                	mov    %esp,%ebp
   108c3:	53                   	push   %ebx
   108c4:	83 ec 04             	sub    $0x4,%esp
   108c7:	8b 5d 08             	mov    0x8(%ebp),%ebx
   108ca:	e8 e1 10 00 00       	call   119b0 <get_ticks>
   108cf:	8b 53 18             	mov    0x18(%ebx),%edx
   108d2:	01 c2                	add    %eax,%edx
   108d4:	2b 53 28             	sub    0x28(%ebx),%edx
   108d7:	89 43 28             	mov    %eax,0x28(%ebx)
   108da:	89 53 18             	mov    %edx,0x18(%ebx)
   108dd:	8b 5d fc             	mov    -0x4(%ebp),%ebx
   108e0:	c9                   	leave
   108e1:	c3                   	ret
   108e2:	8d b4 26 00 00 00 00 	lea    0x0(%esi,%eiz,1),%esi
   108e9:	8d b4 26 00 00 00 00 	lea    0x0(%esi,%eiz,1),%esi

000108f0 <finishSystemTime>:
   108f0:	55                   	push   %ebp
   108f1:	89 e5                	mov    %esp,%ebp
   108f3:	53                   	push   %ebx
   108f4:	83 ec 04             	sub    $0x4,%esp
   108f7:	8b 5d 08             	mov    0x8(%ebp),%ebx
   108fa:	e8 b1 10 00 00       	call   119b0 <get_ticks>
   108ff:	8b 53 1c             	mov    0x1c(%ebx),%edx
   10902:	01 c2                	add    %eax,%edx
   10904:	2b 53 28             	sub    0x28(%ebx),%edx
   10907:	89 43 28             	mov    %eax,0x28(%ebx)
   1090a:	89 53 1c             	mov    %edx,0x1c(%ebx)
   1090d:	8b 5d fc             	mov    -0x4(%ebp),%ebx
   10910:	c9                   	leave
   10911:	c3                   	ret
   10912:	8d b4 26 00 00 00 00 	lea    0x0(%esi,%eiz,1),%esi
   10919:	8d b4 26 00 00 00 00 	lea    0x0(%esi,%eiz,1),%esi

00010920 <finishReadyTime>:
   10920:	55                   	push   %ebp
   10921:	89 e5                	mov    %esp,%ebp
   10923:	53                   	push   %ebx
   10924:	83 ec 04             	sub    $0x4,%esp
   10927:	8b 5d 08             	mov    0x8(%ebp),%ebx
   1092a:	e8 81 10 00 00       	call   119b0 <get_ticks>
   1092f:	8b 53 24             	mov    0x24(%ebx),%edx
   10932:	83 43 2c 01          	addl   $0x1,0x2c(%ebx)
   10936:	01 c2                	add    %eax,%edx
   10938:	2b 53 28             	sub    0x28(%ebx),%edx
   1093b:	89 43 28             	mov    %eax,0x28(%ebx)
   1093e:	89 53 24             	mov    %edx,0x24(%ebx)
   10941:	8b 5d fc             	mov    -0x4(%ebp),%ebx
   10944:	c9                   	leave
   10945:	c3                   	ret
   10946:	8d b4 26 00 00 00 00 	lea    0x0(%esi,%eiz,1),%esi
   1094d:	8d 76 00             	lea    0x0(%esi),%esi

00010950 <user2system>:
   10950:	55                   	push   %ebp
   10951:	89 e5                	mov    %esp,%ebp
   10953:	53                   	push   %ebx
   10954:	83 ec 04             	sub    $0x4,%esp
   10957:	89 e3                	mov    %esp,%ebx
   10959:	e8 52 10 00 00       	call   119b0 <get_ticks>
   1095e:	81 e3 00 f0 ff ff    	and    $0xfffff000,%ebx
   10964:	8b 53 18             	mov    0x18(%ebx),%edx
   10967:	01 c2                	add    %eax,%edx
   10969:	2b 53 28             	sub    0x28(%ebx),%edx
   1096c:	89 43 28             	mov    %eax,0x28(%ebx)
   1096f:	89 53 18             	mov    %edx,0x18(%ebx)
   10972:	8b 5d fc             	mov    -0x4(%ebp),%ebx
   10975:	c9                   	leave
   10976:	c3                   	ret
   10977:	8d b4 26 00 00 00 00 	lea    0x0(%esi,%eiz,1),%esi
   1097e:	66 90                	xchg   %ax,%ax

00010980 <system2user>:
   10980:	55                   	push   %ebp
   10981:	89 e5                	mov    %esp,%ebp
   10983:	53                   	push   %ebx
   10984:	83 ec 04             	sub    $0x4,%esp
   10987:	89 e3                	mov    %esp,%ebx
   10989:	e8 22 10 00 00       	call   119b0 <get_ticks>
   1098e:	81 e3 00 f0 ff ff    	and    $0xfffff000,%ebx
   10994:	8b 53 1c             	mov    0x1c(%ebx),%edx
   10997:	01 c2                	add    %eax,%edx
   10999:	2b 53 28             	sub    0x28(%ebx),%edx
   1099c:	89 43 28             	mov    %eax,0x28(%ebx)
   1099f:	89 53 1c             	mov    %edx,0x1c(%ebx)
   109a2:	8b 5d fc             	mov    -0x4(%ebp),%ebx
   109a5:	c9                   	leave
   109a6:	c3                   	ret
   109a7:	8d b4 26 00 00 00 00 	lea    0x0(%esi,%eiz,1),%esi
   109ae:	66 90                	xchg   %ax,%ax

000109b0 <system2ready>:
   109b0:	55                   	push   %ebp
   109b1:	89 e5                	mov    %esp,%ebp
   109b3:	53                   	push   %ebx
   109b4:	83 ec 04             	sub    $0x4,%esp
   109b7:	89 e3                	mov    %esp,%ebx
   109b9:	e8 f2 0f 00 00       	call   119b0 <get_ticks>
   109be:	81 e3 00 f0 ff ff    	and    $0xfffff000,%ebx
   109c4:	8b 53 1c             	mov    0x1c(%ebx),%edx
   109c7:	01 c2                	add    %eax,%edx
   109c9:	2b 53 28             	sub    0x28(%ebx),%edx
   109cc:	89 43 28             	mov    %eax,0x28(%ebx)
   109cf:	89 53 1c             	mov    %edx,0x1c(%ebx)
   109d2:	8b 5d fc             	mov    -0x4(%ebp),%ebx
   109d5:	c9                   	leave
   109d6:	c3                   	ret
   109d7:	8d b4 26 00 00 00 00 	lea    0x0(%esi,%eiz,1),%esi
   109de:	66 90                	xchg   %ax,%ax

000109e0 <ready2system>:
   109e0:	55                   	push   %ebp
   109e1:	89 e5                	mov    %esp,%ebp
   109e3:	53                   	push   %ebx
   109e4:	83 ec 04             	sub    $0x4,%esp
   109e7:	89 e3                	mov    %esp,%ebx
   109e9:	e8 c2 0f 00 00       	call   119b0 <get_ticks>
   109ee:	81 e3 00 f0 ff ff    	and    $0xfffff000,%ebx
   109f4:	8b 53 24             	mov    0x24(%ebx),%edx
   109f7:	83 43 2c 01          	addl   $0x1,0x2c(%ebx)
   109fb:	01 c2                	add    %eax,%edx
   109fd:	2b 53 28             	sub    0x28(%ebx),%edx
   10a00:	89 43 28             	mov    %eax,0x28(%ebx)
   10a03:	89 53 24             	mov    %edx,0x24(%ebx)
   10a06:	8b 5d fc             	mov    -0x4(%ebp),%ebx
   10a09:	c9                   	leave
   10a0a:	c3                   	ret
   10a0b:	8d 74 26 00          	lea    0x0(%esi,%eiz,1),%esi
   10a0f:	90                   	nop

00010a10 <init_stats>:
   10a10:	55                   	push   %ebp
   10a11:	66 0f ef c0          	pxor   %xmm0,%xmm0
   10a15:	89 e5                	mov    %esp,%ebp
   10a17:	53                   	push   %ebx
   10a18:	83 ec 04             	sub    $0x4,%esp
   10a1b:	8b 5d 08             	mov    0x8(%ebp),%ebx
   10a1e:	0f 11 03             	movups %xmm0,(%ebx)
   10a21:	e8 8a 0f 00 00       	call   119b0 <get_ticks>
   10a26:	c7 43 14 00 00 00 00 	movl   $0x0,0x14(%ebx)
   10a2d:	89 43 10             	mov    %eax,0x10(%ebx)
   10a30:	e8 7b 0f 00 00       	call   119b0 <get_ticks>
   10a35:	89 43 18             	mov    %eax,0x18(%ebx)
   10a38:	8b 5d fc             	mov    -0x4(%ebp),%ebx
   10a3b:	c9                   	leave
   10a3c:	c3                   	ret
   10a3d:	8d 76 00             	lea    0x0(%esi),%esi

00010a40 <inner_task_switch>:
   10a40:	55                   	push   %ebp
   10a41:	89 e5                	mov    %esp,%ebp
   10a43:	53                   	push   %ebx
   10a44:	83 ec 04             	sub    $0x4,%esp
   10a47:	8b 5d 08             	mov    0x8(%ebp),%ebx
   10a4a:	8d 83 00 10 00 00    	lea    0x1000(%ebx),%eax
   10a50:	a3 64 58 01 00       	mov    %eax,0x15864
   10a55:	89 e0                	mov    %esp,%eax
   10a57:	25 00 f0 ff ff       	and    $0xfffff000,%eax
   10a5c:	8b 53 14             	mov    0x14(%ebx),%edx
   10a5f:	39 50 14             	cmp    %edx,0x14(%eax)
   10a62:	74 0c                	je     10a70 <inner_task_switch+0x30>
   10a64:	83 ec 0c             	sub    $0xc,%esp
   10a67:	52                   	push   %edx
   10a68:	e8 f3 09 00 00       	call   11460 <set_cr3>
   10a6d:	83 c4 10             	add    $0x10,%esp
   10a70:	89 ea                	mov    %ebp,%edx
   10a72:	89 e0                	mov    %esp,%eax
   10a74:	25 00 f0 ff ff       	and    $0xfffff000,%eax
   10a79:	89 50 10             	mov    %edx,0x10(%eax)
   10a7c:	8b 63 10             	mov    0x10(%ebx),%esp
   10a7f:	5d                   	pop    %ebp
   10a80:	c3                   	ret
   10a81:	8b 5d fc             	mov    -0x4(%ebp),%ebx
   10a84:	c9                   	leave
   10a85:	c3                   	ret
   10a86:	8d b4 26 00 00 00 00 	lea    0x0(%esi,%eiz,1),%esi
   10a8d:	8d 76 00             	lea    0x0(%esi),%esi

00010a90 <task_switch>:
   10a90:	55                   	push   %ebp
   10a91:	89 e5                	mov    %esp,%ebp
   10a93:	53                   	push   %ebx
   10a94:	56                   	push   %esi
   10a95:	57                   	push   %edi
   10a96:	ff 75 08             	push   0x8(%ebp)
   10a99:	e8 a2 ff ff ff       	call   10a40 <inner_task_switch>
   10a9e:	83 c4 04             	add    $0x4,%esp
   10aa1:	5f                   	pop    %edi
   10aa2:	5e                   	pop    %esi
   10aa3:	5b                   	pop    %ebx
   10aa4:	5d                   	pop    %ebp
   10aa5:	c3                   	ret
   10aa6:	8d b4 26 00 00 00 00 	lea    0x0(%esi,%eiz,1),%esi
   10aad:	8d 76 00             	lea    0x0(%esi),%esi

00010ab0 <update_sched_data_rr>:
   10ab0:	83 2d 4c 58 01 00 01 	subl   $0x1,0x1584c
   10ab7:	c3                   	ret
   10ab8:	8d b4 26 00 00 00 00 	lea    0x0(%esi,%eiz,1),%esi
   10abf:	90                   	nop

00010ac0 <needs_sched_rr>:
   10ac0:	55                   	push   %ebp
   10ac1:	89 e5                	mov    %esp,%ebp
   10ac3:	53                   	push   %ebx
   10ac4:	83 ec 04             	sub    $0x4,%esp
   10ac7:	89 e3                	mov    %esp,%ebx
   10ac9:	8b 15 4c 58 01 00    	mov    0x1584c,%edx
   10acf:	a1 48 58 01 00       	mov    0x15848,%eax
   10ad4:	81 e3 00 f0 ff ff    	and    $0xfffff000,%ebx
   10ada:	85 d2                	test   %edx,%edx
   10adc:	74 12                	je     10af0 <needs_sched_rr+0x30>
   10ade:	39 d8                	cmp    %ebx,%eax
   10ae0:	74 1e                	je     10b00 <needs_sched_rr+0x40>
   10ae2:	31 c0                	xor    %eax,%eax
   10ae4:	8b 5d fc             	mov    -0x4(%ebp),%ebx
   10ae7:	c9                   	leave
   10ae8:	c3                   	ret
   10ae9:	8d b4 26 00 00 00 00 	lea    0x0(%esi,%eiz,1),%esi
   10af0:	39 d8                	cmp    %ebx,%eax
   10af2:	74 0c                	je     10b00 <needs_sched_rr+0x40>
   10af4:	8b 5d fc             	mov    -0x4(%ebp),%ebx
   10af7:	b8 01 00 00 00       	mov    $0x1,%eax
   10afc:	c9                   	leave
   10afd:	c3                   	ret
   10afe:	66 90                	xchg   %ax,%ax
   10b00:	83 ec 0c             	sub    $0xc,%esp
   10b03:	68 50 58 01 00       	push   $0x15850
   10b08:	e8 43 11 00 00       	call   11c50 <list_empty>
   10b0d:	83 c4 10             	add    $0x10,%esp
   10b10:	85 c0                	test   %eax,%eax
   10b12:	74 e0                	je     10af4 <needs_sched_rr+0x34>
   10b14:	8b 43 04             	mov    0x4(%ebx),%eax
   10b17:	a3 4c 58 01 00       	mov    %eax,0x1584c
   10b1c:	31 c0                	xor    %eax,%eax
   10b1e:	eb c4                	jmp    10ae4 <needs_sched_rr+0x24>

00010b20 <update_process_state_rr>:
   10b20:	55                   	push   %ebp
   10b21:	89 e5                	mov    %esp,%ebp
   10b23:	56                   	push   %esi
   10b24:	53                   	push   %ebx
   10b25:	8b 5d 08             	mov    0x8(%ebp),%ebx
   10b28:	8b 75 0c             	mov    0xc(%ebp),%esi
   10b2b:	8b 43 08             	mov    0x8(%ebx),%eax
   10b2e:	85 c0                	test   %eax,%eax
   10b30:	74 0f                	je     10b41 <update_process_state_rr+0x21>
   10b32:	83 ec 0c             	sub    $0xc,%esp
   10b35:	8d 43 08             	lea    0x8(%ebx),%eax
   10b38:	50                   	push   %eax
   10b39:	e8 d2 10 00 00       	call   11c10 <list_del>
   10b3e:	83 c4 10             	add    $0x10,%esp
   10b41:	85 f6                	test   %esi,%esi
   10b43:	74 23                	je     10b68 <update_process_state_rr+0x48>
   10b45:	39 1d 48 58 01 00    	cmp    %ebx,0x15848
   10b4b:	74 1b                	je     10b68 <update_process_state_rr+0x48>
   10b4d:	83 c3 08             	add    $0x8,%ebx
   10b50:	89 75 0c             	mov    %esi,0xc(%ebp)
   10b53:	89 5d 08             	mov    %ebx,0x8(%ebp)
   10b56:	8d 65 f8             	lea    -0x8(%ebp),%esp
   10b59:	5b                   	pop    %ebx
   10b5a:	5e                   	pop    %esi
   10b5b:	5d                   	pop    %ebp
   10b5c:	e9 7f 10 00 00       	jmp    11be0 <list_add_tail>
   10b61:	8d b4 26 00 00 00 00 	lea    0x0(%esi,%eiz,1),%esi
   10b68:	8d 65 f8             	lea    -0x8(%ebp),%esp
   10b6b:	5b                   	pop    %ebx
   10b6c:	5e                   	pop    %esi
   10b6d:	5d                   	pop    %ebp
   10b6e:	c3                   	ret
   10b6f:	90                   	nop

00010b70 <sched_next_rr>:
   10b70:	55                   	push   %ebp
   10b71:	89 e5                	mov    %esp,%ebp
   10b73:	56                   	push   %esi
   10b74:	53                   	push   %ebx
   10b75:	83 ec 0c             	sub    $0xc,%esp
   10b78:	68 50 58 01 00       	push   $0x15850
   10b7d:	e8 ce 10 00 00       	call   11c50 <list_empty>
   10b82:	8b 1d 48 58 01 00    	mov    0x15848,%ebx
   10b88:	83 c4 10             	add    $0x10,%esp
   10b8b:	85 c0                	test   %eax,%eax
   10b8d:	74 59                	je     10be8 <sched_next_rr+0x78>
   10b8f:	8b 43 04             	mov    0x4(%ebx),%eax
   10b92:	a3 4c 58 01 00       	mov    %eax,0x1584c
   10b97:	89 e6                	mov    %esp,%esi
   10b99:	e8 12 0e 00 00       	call   119b0 <get_ticks>
   10b9e:	81 e6 00 f0 ff ff    	and    $0xfffff000,%esi
   10ba4:	8b 56 1c             	mov    0x1c(%esi),%edx
   10ba7:	01 c2                	add    %eax,%edx
   10ba9:	2b 56 28             	sub    0x28(%esi),%edx
   10bac:	89 46 28             	mov    %eax,0x28(%esi)
   10baf:	89 56 1c             	mov    %edx,0x1c(%esi)
   10bb2:	39 1d 48 58 01 00    	cmp    %ebx,0x15848
   10bb8:	74 17                	je     10bd1 <sched_next_rr+0x61>
   10bba:	e8 f1 0d 00 00       	call   119b0 <get_ticks>
   10bbf:	8b 53 24             	mov    0x24(%ebx),%edx
   10bc2:	83 43 2c 01          	addl   $0x1,0x2c(%ebx)
   10bc6:	01 c2                	add    %eax,%edx
   10bc8:	2b 53 28             	sub    0x28(%ebx),%edx
   10bcb:	89 43 28             	mov    %eax,0x28(%ebx)
   10bce:	89 53 24             	mov    %edx,0x24(%ebx)
   10bd1:	83 ec 0c             	sub    $0xc,%esp
   10bd4:	53                   	push   %ebx
   10bd5:	e8 b6 fe ff ff       	call   10a90 <task_switch>
   10bda:	83 c4 10             	add    $0x10,%esp
   10bdd:	8d 65 f8             	lea    -0x8(%ebp),%esp
   10be0:	5b                   	pop    %ebx
   10be1:	5e                   	pop    %esi
   10be2:	5d                   	pop    %ebp
   10be3:	c3                   	ret
   10be4:	8d 74 26 00          	lea    0x0(%esi,%eiz,1),%esi
   10be8:	a1 50 58 01 00       	mov    0x15850,%eax
   10bed:	83 ec 0c             	sub    $0xc,%esp
   10bf0:	50                   	push   %eax
   10bf1:	8d 58 f8             	lea    -0x8(%eax),%ebx
   10bf4:	e8 17 10 00 00       	call   11c10 <list_del>
   10bf9:	83 c4 10             	add    $0x10,%esp
   10bfc:	eb 91                	jmp    10b8f <sched_next_rr+0x1f>
   10bfe:	66 90                	xchg   %ax,%ax

00010c00 <scheduling>:
   10c00:	55                   	push   %ebp
   10c01:	89 e5                	mov    %esp,%ebp
   10c03:	53                   	push   %ebx
   10c04:	83 ec 04             	sub    $0x4,%esp
   10c07:	a1 4c 58 01 00       	mov    0x1584c,%eax
   10c0c:	83 e8 01             	sub    $0x1,%eax
   10c0f:	a3 4c 58 01 00       	mov    %eax,0x1584c
   10c14:	89 e3                	mov    %esp,%ebx
   10c16:	8b 15 48 58 01 00    	mov    0x15848,%edx
   10c1c:	81 e3 00 f0 ff ff    	and    $0xfffff000,%ebx
   10c22:	85 c0                	test   %eax,%eax
   10c24:	74 0a                	je     10c30 <scheduling+0x30>
   10c26:	39 da                	cmp    %ebx,%edx
   10c28:	74 56                	je     10c80 <scheduling+0x80>
   10c2a:	8b 5d fc             	mov    -0x4(%ebp),%ebx
   10c2d:	c9                   	leave
   10c2e:	c3                   	ret
   10c2f:	90                   	nop
   10c30:	39 da                	cmp    %ebx,%edx
   10c32:	74 4c                	je     10c80 <scheduling+0x80>
   10c34:	89 e3                	mov    %esp,%ebx
   10c36:	81 e3 00 f0 ff ff    	and    $0xfffff000,%ebx
   10c3c:	8b 43 08             	mov    0x8(%ebx),%eax
   10c3f:	85 c0                	test   %eax,%eax
   10c41:	74 0f                	je     10c52 <scheduling+0x52>
   10c43:	83 ec 0c             	sub    $0xc,%esp
   10c46:	8d 43 08             	lea    0x8(%ebx),%eax
   10c49:	50                   	push   %eax
   10c4a:	e8 c1 0f 00 00       	call   11c10 <list_del>
   10c4f:	83 c4 10             	add    $0x10,%esp
   10c52:	3b 1d 48 58 01 00    	cmp    0x15848,%ebx
   10c58:	74 14                	je     10c6e <scheduling+0x6e>
   10c5a:	83 ec 08             	sub    $0x8,%esp
   10c5d:	83 c3 08             	add    $0x8,%ebx
   10c60:	68 50 58 01 00       	push   $0x15850
   10c65:	53                   	push   %ebx
   10c66:	e8 75 0f 00 00       	call   11be0 <list_add_tail>
   10c6b:	83 c4 10             	add    $0x10,%esp
   10c6e:	8b 5d fc             	mov    -0x4(%ebp),%ebx
   10c71:	c9                   	leave
   10c72:	e9 f9 fe ff ff       	jmp    10b70 <sched_next_rr>
   10c77:	8d b4 26 00 00 00 00 	lea    0x0(%esi,%eiz,1),%esi
   10c7e:	66 90                	xchg   %ax,%ax
   10c80:	83 ec 0c             	sub    $0xc,%esp
   10c83:	68 50 58 01 00       	push   $0x15850
   10c88:	e8 c3 0f 00 00       	call   11c50 <list_empty>
   10c8d:	83 c4 10             	add    $0x10,%esp
   10c90:	85 c0                	test   %eax,%eax
   10c92:	74 a0                	je     10c34 <scheduling+0x34>
   10c94:	8b 43 04             	mov    0x4(%ebx),%eax
   10c97:	a3 4c 58 01 00       	mov    %eax,0x1584c
   10c9c:	eb 8c                	jmp    10c2a <scheduling+0x2a>
   10c9e:	66 90                	xchg   %ax,%ax

00010ca0 <ret_from_fork>:
   10ca0:	31 c0                	xor    %eax,%eax
   10ca2:	c3                   	ret
   10ca3:	8d b4 26 00 00 00 00 	lea    0x0(%esi,%eiz,1),%esi
   10caa:	8d b6 00 00 00 00    	lea    0x0(%esi),%esi

00010cb0 <check_fd>:
   10cb0:	55                   	push   %ebp
   10cb1:	89 e5                	mov    %esp,%ebp
   10cb3:	83 7d 08 01          	cmpl   $0x1,0x8(%ebp)
   10cb7:	75 17                	jne    10cd0 <check_fd+0x20>
   10cb9:	83 7d 0c 01          	cmpl   $0x1,0xc(%ebp)
   10cbd:	b8 f3 ff ff ff       	mov    $0xfffffff3,%eax
   10cc2:	ba 00 00 00 00       	mov    $0x0,%edx
   10cc7:	5d                   	pop    %ebp
   10cc8:	0f 44 c2             	cmove  %edx,%eax
   10ccb:	c3                   	ret
   10ccc:	8d 74 26 00          	lea    0x0(%esi,%eiz,1),%esi
   10cd0:	b8 f7 ff ff ff       	mov    $0xfffffff7,%eax
   10cd5:	5d                   	pop    %ebp
   10cd6:	c3                   	ret
   10cd7:	8d b4 26 00 00 00 00 	lea    0x0(%esi,%eiz,1),%esi
   10cde:	66 90                	xchg   %ax,%ax

00010ce0 <sys_ni_syscall>:
   10ce0:	b8 da ff ff ff       	mov    $0xffffffda,%eax
   10ce5:	c3                   	ret
   10ce6:	8d b4 26 00 00 00 00 	lea    0x0(%esi,%eiz,1),%esi
   10ced:	8d 76 00             	lea    0x0(%esi),%esi

00010cf0 <sys_gettime>:
   10cf0:	a1 c0 4f 01 00       	mov    0x14fc0,%eax
   10cf5:	c3                   	ret
   10cf6:	8d b4 26 00 00 00 00 	lea    0x0(%esi,%eiz,1),%esi
   10cfd:	8d 76 00             	lea    0x0(%esi),%esi

00010d00 <sys_write>:
   10d00:	55                   	push   %ebp
   10d01:	89 e5                	mov    %esp,%ebp
   10d03:	57                   	push   %edi
   10d04:	56                   	push   %esi
   10d05:	53                   	push   %ebx
   10d06:	81 ec 0c 02 00 00    	sub    $0x20c,%esp
   10d0c:	83 7d 08 01          	cmpl   $0x1,0x8(%ebp)
   10d10:	8b 7d 0c             	mov    0xc(%ebp),%edi
   10d13:	0f 85 b4 00 00 00    	jne    10dcd <sys_write+0xcd>
   10d19:	8b 45 10             	mov    0x10(%ebp),%eax
   10d1c:	85 c0                	test   %eax,%eax
   10d1e:	0f 88 b0 00 00 00    	js     10dd4 <sys_write+0xd4>
   10d24:	83 ec 04             	sub    $0x4,%esp
   10d27:	ff 75 10             	push   0x10(%ebp)
   10d2a:	57                   	push   %edi
   10d2b:	6a 00                	push   $0x0
   10d2d:	e8 1e 0c 00 00       	call   11950 <access_ok>
   10d32:	83 c4 10             	add    $0x10,%esp
   10d35:	85 c0                	test   %eax,%eax
   10d37:	0f 84 9e 00 00 00    	je     10ddb <sys_write+0xdb>
   10d3d:	81 7d 10 00 02 00 00 	cmpl   $0x200,0x10(%ebp)
   10d44:	8b 75 10             	mov    0x10(%ebp),%esi
   10d47:	7e 47                	jle    10d90 <sys_write+0x90>
   10d49:	8d 9d e8 fd ff ff    	lea    -0x218(%ebp),%ebx
   10d4f:	eb 13                	jmp    10d64 <sys_write+0x64>
   10d51:	8d b4 26 00 00 00 00 	lea    0x0(%esi,%eiz,1),%esi
   10d58:	29 c6                	sub    %eax,%esi
   10d5a:	01 c7                	add    %eax,%edi
   10d5c:	81 fe 00 02 00 00    	cmp    $0x200,%esi
   10d62:	7e 2c                	jle    10d90 <sys_write+0x90>
   10d64:	83 ec 04             	sub    $0x4,%esp
   10d67:	68 00 02 00 00       	push   $0x200
   10d6c:	53                   	push   %ebx
   10d6d:	57                   	push   %edi
   10d6e:	e8 fd 0a 00 00       	call   11870 <copy_from_user>
   10d73:	59                   	pop    %ecx
   10d74:	58                   	pop    %eax
   10d75:	68 00 02 00 00       	push   $0x200
   10d7a:	53                   	push   %ebx
   10d7b:	e8 40 0a 00 00       	call   117c0 <sys_write_console>
   10d80:	83 c4 10             	add    $0x10,%esp
   10d83:	85 c0                	test   %eax,%eax
   10d85:	79 d1                	jns    10d58 <sys_write+0x58>
   10d87:	8d 65 f4             	lea    -0xc(%ebp),%esp
   10d8a:	5b                   	pop    %ebx
   10d8b:	5e                   	pop    %esi
   10d8c:	5f                   	pop    %edi
   10d8d:	5d                   	pop    %ebp
   10d8e:	c3                   	ret
   10d8f:	90                   	nop
   10d90:	85 f6                	test   %esi,%esi
   10d92:	7f 14                	jg     10da8 <sys_write+0xa8>
   10d94:	8b 45 10             	mov    0x10(%ebp),%eax
   10d97:	8d 65 f4             	lea    -0xc(%ebp),%esp
   10d9a:	5b                   	pop    %ebx
   10d9b:	29 f0                	sub    %esi,%eax
   10d9d:	5e                   	pop    %esi
   10d9e:	5f                   	pop    %edi
   10d9f:	5d                   	pop    %ebp
   10da0:	c3                   	ret
   10da1:	8d b4 26 00 00 00 00 	lea    0x0(%esi,%eiz,1),%esi
   10da8:	83 ec 04             	sub    $0x4,%esp
   10dab:	8d 9d e8 fd ff ff    	lea    -0x218(%ebp),%ebx
   10db1:	56                   	push   %esi
   10db2:	53                   	push   %ebx
   10db3:	57                   	push   %edi
   10db4:	e8 b7 0a 00 00       	call   11870 <copy_from_user>
   10db9:	58                   	pop    %eax
   10dba:	5a                   	pop    %edx
   10dbb:	56                   	push   %esi
   10dbc:	53                   	push   %ebx
   10dbd:	e8 fe 09 00 00       	call   117c0 <sys_write_console>
   10dc2:	83 c4 10             	add    $0x10,%esp
   10dc5:	85 c0                	test   %eax,%eax
   10dc7:	78 be                	js     10d87 <sys_write+0x87>
   10dc9:	29 c6                	sub    %eax,%esi
   10dcb:	eb c7                	jmp    10d94 <sys_write+0x94>
   10dcd:	b8 f7 ff ff ff       	mov    $0xfffffff7,%eax
   10dd2:	eb b3                	jmp    10d87 <sys_write+0x87>
   10dd4:	b8 ea ff ff ff       	mov    $0xffffffea,%eax
   10dd9:	eb ac                	jmp    10d87 <sys_write+0x87>
   10ddb:	b8 f2 ff ff ff       	mov    $0xfffffff2,%eax
   10de0:	eb a5                	jmp    10d87 <sys_write+0x87>
   10de2:	8d b4 26 00 00 00 00 	lea    0x0(%esi,%eiz,1),%esi
   10de9:	8d b4 26 00 00 00 00 	lea    0x0(%esi,%eiz,1),%esi

00010df0 <sys_getpid>:
   10df0:	55                   	push   %ebp
   10df1:	89 e5                	mov    %esp,%ebp
   10df3:	83 ec 08             	sub    $0x8,%esp
   10df6:	e8 b5 fa ff ff       	call   108b0 <current>
   10dfb:	8b 00                	mov    (%eax),%eax
   10dfd:	c9                   	leave
   10dfe:	c3                   	ret
   10dff:	90                   	nop

00010e00 <sys_fork>:
   10e00:	55                   	push   %ebp
   10e01:	89 e5                	mov    %esp,%ebp
   10e03:	57                   	push   %edi
   10e04:	56                   	push   %esi
   10e05:	53                   	push   %ebx
   10e06:	83 ec 78             	sub    $0x78,%esp
   10e09:	68 58 58 01 00       	push   $0x15858
   10e0e:	e8 3d 0e 00 00       	call   11c50 <list_empty>
   10e13:	83 c4 10             	add    $0x10,%esp
   10e16:	85 c0                	test   %eax,%eax
   10e18:	75 5a                	jne    10e74 <sys_fork+0x74>
   10e1a:	8b 35 58 58 01 00    	mov    0x15858,%esi
   10e20:	83 ec 0c             	sub    $0xc,%esp
   10e23:	89 c3                	mov    %eax,%ebx
   10e25:	31 ff                	xor    %edi,%edi
   10e27:	56                   	push   %esi
   10e28:	e8 f3 f7 ff ff       	call   10620 <list_head_to_task_struct>
   10e2d:	83 c4 10             	add    $0x10,%esp
   10e30:	89 45 8c             	mov    %eax,-0x74(%ebp)
   10e33:	eb 0b                	jmp    10e40 <sys_fork+0x40>
   10e35:	8d 76 00             	lea    0x0(%esi),%esi
   10e38:	83 c7 01             	add    $0x1,%edi
   10e3b:	83 ff 14             	cmp    $0x14,%edi
   10e3e:	74 41                	je     10e81 <sys_fork+0x81>
   10e40:	e8 6b 08 00 00       	call   116b0 <alloc_frame>
   10e45:	89 44 bd 98          	mov    %eax,-0x68(%ebp,%edi,4)
   10e49:	85 c0                	test   %eax,%eax
   10e4b:	79 eb                	jns    10e38 <sys_fork+0x38>
   10e4d:	85 ff                	test   %edi,%edi
   10e4f:	74 23                	je     10e74 <sys_fork+0x74>
   10e51:	8d 5d 98             	lea    -0x68(%ebp),%ebx
   10e54:	8d 34 bb             	lea    (%ebx,%edi,4),%esi
   10e57:	8d b4 26 00 00 00 00 	lea    0x0(%esi,%eiz,1),%esi
   10e5e:	66 90                	xchg   %ax,%ax
   10e60:	83 ec 0c             	sub    $0xc,%esp
   10e63:	ff 33                	push   (%ebx)
   10e65:	83 c3 04             	add    $0x4,%ebx
   10e68:	e8 d3 08 00 00       	call   11740 <free_frame>
   10e6d:	83 c4 10             	add    $0x10,%esp
   10e70:	39 de                	cmp    %ebx,%esi
   10e72:	75 ec                	jne    10e60 <sys_fork+0x60>
   10e74:	8d 65 f4             	lea    -0xc(%ebp),%esp
   10e77:	b8 f4 ff ff ff       	mov    $0xfffffff4,%eax
   10e7c:	5b                   	pop    %ebx
   10e7d:	5e                   	pop    %esi
   10e7e:	5f                   	pop    %edi
   10e7f:	5d                   	pop    %ebp
   10e80:	c3                   	ret
   10e81:	83 ec 0c             	sub    $0xc,%esp
   10e84:	56                   	push   %esi
   10e85:	e8 86 0d 00 00       	call   11c10 <list_del>
   10e8a:	e8 21 fa ff ff       	call   108b0 <current>
   10e8f:	8b 75 8c             	mov    -0x74(%ebp),%esi
   10e92:	83 c4 0c             	add    $0xc,%esp
   10e95:	68 00 10 00 00       	push   $0x1000
   10e9a:	56                   	push   %esi
   10e9b:	50                   	push   %eax
   10e9c:	e8 5f 09 00 00       	call   11800 <copy_data>
   10ea1:	89 34 24             	mov    %esi,(%esp)
   10ea4:	e8 b7 f7 ff ff       	call   10660 <allocate_DIR>
   10ea9:	89 34 24             	mov    %esi,(%esp)
   10eac:	e8 8f f7 ff ff       	call   10640 <get_PT>
   10eb1:	89 c7                	mov    %eax,%edi
   10eb3:	e8 f8 f9 ff ff       	call   108b0 <current>
   10eb8:	89 04 24             	mov    %eax,(%esp)
   10ebb:	e8 80 f7 ff ff       	call   10640 <get_PT>
   10ec0:	83 c4 10             	add    $0x10,%esp
   10ec3:	89 c6                	mov    %eax,%esi
   10ec5:	8d 76 00             	lea    0x0(%esi),%esi
   10ec8:	8b 04 9e             	mov    (%esi,%ebx,4),%eax
   10ecb:	89 04 9f             	mov    %eax,(%edi,%ebx,4)
   10ece:	83 c3 01             	add    $0x1,%ebx
   10ed1:	81 fb 00 01 00 00    	cmp    $0x100,%ebx
   10ed7:	75 ef                	jne    10ec8 <sys_fork+0xc8>
   10ed9:	8d b4 26 00 00 00 00 	lea    0x0(%esi,%eiz,1),%esi
   10ee0:	8b 04 9e             	mov    (%esi,%ebx,4),%eax
   10ee3:	89 04 9f             	mov    %eax,(%edi,%ebx,4)
   10ee6:	83 c3 01             	add    $0x1,%ebx
   10ee9:	81 fb 08 01 00 00    	cmp    $0x108,%ebx
   10eef:	75 ef                	jne    10ee0 <sys_fork+0xe0>
   10ef1:	89 7d 90             	mov    %edi,-0x70(%ebp)
   10ef4:	8d 74 26 00          	lea    0x0(%esi,%eiz,1),%esi
   10ef8:	8b 94 9d 78 fb ff ff 	mov    -0x488(%ebp,%ebx,4),%edx
   10eff:	83 ec 04             	sub    $0x4,%esp
   10f02:	8d 7b 14             	lea    0x14(%ebx),%edi
   10f05:	52                   	push   %edx
   10f06:	89 55 94             	mov    %edx,-0x6c(%ebp)
   10f09:	53                   	push   %ebx
   10f0a:	ff 75 90             	push   -0x70(%ebp)
   10f0d:	e8 4e 08 00 00       	call   11760 <set_ss_pag>
   10f12:	8b 55 94             	mov    -0x6c(%ebp),%edx
   10f15:	83 c4 0c             	add    $0xc,%esp
   10f18:	52                   	push   %edx
   10f19:	57                   	push   %edi
   10f1a:	56                   	push   %esi
   10f1b:	e8 40 08 00 00       	call   11760 <set_ss_pag>
   10f20:	89 da                	mov    %ebx,%edx
   10f22:	83 c4 0c             	add    $0xc,%esp
   10f25:	83 c3 01             	add    $0x1,%ebx
   10f28:	c1 e2 0c             	shl    $0xc,%edx
   10f2b:	68 00 10 00 00       	push   $0x1000
   10f30:	8d 8a 00 40 01 00    	lea    0x14000(%edx),%ecx
   10f36:	51                   	push   %ecx
   10f37:	52                   	push   %edx
   10f38:	e8 c3 08 00 00       	call   11800 <copy_data>
   10f3d:	59                   	pop    %ecx
   10f3e:	58                   	pop    %eax
   10f3f:	57                   	push   %edi
   10f40:	56                   	push   %esi
   10f41:	e8 3a 08 00 00       	call   11780 <del_ss_pag>
   10f46:	83 c4 10             	add    $0x10,%esp
   10f49:	81 fb 1c 01 00 00    	cmp    $0x11c,%ebx
   10f4f:	75 a7                	jne    10ef8 <sys_fork+0xf8>
   10f51:	e8 5a f9 ff ff       	call   108b0 <current>
   10f56:	83 ec 0c             	sub    $0xc,%esp
   10f59:	50                   	push   %eax
   10f5a:	e8 d1 f6 ff ff       	call   10630 <get_DIR>
   10f5f:	89 04 24             	mov    %eax,(%esp)
   10f62:	e8 f9 04 00 00       	call   11460 <set_cr3>
   10f67:	a1 00 58 01 00       	mov    0x15800,%eax
   10f6c:	8b 75 8c             	mov    -0x74(%ebp),%esi
   10f6f:	83 c0 01             	add    $0x1,%eax
   10f72:	a3 00 58 01 00       	mov    %eax,0x15800
   10f77:	89 06                	mov    %eax,(%esi)
   10f79:	8d 46 18             	lea    0x18(%esi),%eax
   10f7c:	89 04 24             	mov    %eax,(%esp)
   10f7f:	e8 8c fa ff ff       	call   10a10 <init_stats>
   10f84:	8d 86 b4 0f 00 00    	lea    0xfb4(%esi),%eax
   10f8a:	c7 86 b8 0f 00 00 a0 	movl   $0x10ca0,0xfb8(%esi)
   10f91:	0c 01 00 
   10f94:	c7 86 b4 0f 00 00 00 	movl   $0x0,0xfb4(%esi)
   10f9b:	00 00 00 
   10f9e:	89 46 10             	mov    %eax,0x10(%esi)
   10fa1:	58                   	pop    %eax
   10fa2:	8d 46 08             	lea    0x8(%esi),%eax
   10fa5:	5a                   	pop    %edx
   10fa6:	68 50 58 01 00       	push   $0x15850
   10fab:	50                   	push   %eax
   10fac:	e8 2f 0c 00 00       	call   11be0 <list_add_tail>
   10fb1:	a1 00 58 01 00       	mov    0x15800,%eax
   10fb6:	83 c4 10             	add    $0x10,%esp
   10fb9:	8d 65 f4             	lea    -0xc(%ebp),%esp
   10fbc:	5b                   	pop    %ebx
   10fbd:	5e                   	pop    %esi
   10fbe:	5f                   	pop    %edi
   10fbf:	5d                   	pop    %ebp
   10fc0:	c3                   	ret
   10fc1:	8d b4 26 00 00 00 00 	lea    0x0(%esi,%eiz,1),%esi
   10fc8:	8d b4 26 00 00 00 00 	lea    0x0(%esi,%eiz,1),%esi
   10fcf:	90                   	nop

00010fd0 <find_dir_usage>:
   10fd0:	55                   	push   %ebp
   10fd1:	ba 00 a0 02 00       	mov    $0x2a000,%edx
   10fd6:	89 e5                	mov    %esp,%ebp
   10fd8:	8b 45 08             	mov    0x8(%ebp),%eax
   10fdb:	8b 48 14             	mov    0x14(%eax),%ecx
   10fde:	31 c0                	xor    %eax,%eax
   10fe0:	39 d1                	cmp    %edx,%ecx
   10fe2:	74 1c                	je     11000 <find_dir_usage+0x30>
   10fe4:	83 c0 01             	add    $0x1,%eax
   10fe7:	81 c2 00 10 00 00    	add    $0x1000,%edx
   10fed:	83 f8 0a             	cmp    $0xa,%eax
   10ff0:	75 ee                	jne    10fe0 <find_dir_usage+0x10>
   10ff2:	31 c0                	xor    %eax,%eax
   10ff4:	5d                   	pop    %ebp
   10ff5:	c3                   	ret
   10ff6:	8d b4 26 00 00 00 00 	lea    0x0(%esi,%eiz,1),%esi
   10ffd:	8d 76 00             	lea    0x0(%esi),%esi
   11000:	8d 04 85 20 58 01 00 	lea    0x15820(,%eax,4),%eax
   11007:	5d                   	pop    %ebp
   11008:	c3                   	ret
   11009:	8d b4 26 00 00 00 00 	lea    0x0(%esi,%eiz,1),%esi

00011010 <sys_exit>:
   11010:	55                   	push   %ebp
   11011:	89 e5                	mov    %esp,%ebp
   11013:	56                   	push   %esi
   11014:	53                   	push   %ebx
   11015:	e8 96 f8 ff ff       	call   108b0 <current>
   1101a:	b9 00 a0 02 00       	mov    $0x2a000,%ecx
   1101f:	31 d2                	xor    %edx,%edx
   11021:	8b 58 14             	mov    0x14(%eax),%ebx
   11024:	89 c6                	mov    %eax,%esi
   11026:	eb 16                	jmp    1103e <sys_exit+0x2e>
   11028:	8d b4 26 00 00 00 00 	lea    0x0(%esi,%eiz,1),%esi
   1102f:	90                   	nop
   11030:	83 c2 01             	add    $0x1,%edx
   11033:	81 c1 00 10 00 00    	add    $0x1000,%ecx
   11039:	83 fa 0a             	cmp    $0xa,%edx
   1103c:	74 4a                	je     11088 <sys_exit+0x78>
   1103e:	39 cb                	cmp    %ecx,%ebx
   11040:	75 ee                	jne    11030 <sys_exit+0x20>
   11042:	83 2c 95 20 58 01 00 	subl   $0x1,0x15820(,%edx,4)
   11049:	01 
   1104a:	75 0c                	jne    11058 <sys_exit+0x48>
   1104c:	83 ec 0c             	sub    $0xc,%esp
   1104f:	56                   	push   %esi
   11050:	e8 9b 06 00 00       	call   116f0 <free_user_pages>
   11055:	83 c4 10             	add    $0x10,%esp
   11058:	83 ec 0c             	sub    $0xc,%esp
   1105b:	ff 36                	push   (%esi)
   1105d:	e8 8e 0f 00 00       	call   11ff0 <destroy_owned_sems>
   11062:	c7 06 ff ff ff ff    	movl   $0xffffffff,(%esi)
   11068:	e8 43 f8 ff ff       	call   108b0 <current>
   1106d:	5a                   	pop    %edx
   1106e:	59                   	pop    %ecx
   1106f:	68 58 58 01 00       	push   $0x15858
   11074:	50                   	push   %eax
   11075:	e8 a6 fa ff ff       	call   10b20 <update_process_state_rr>
   1107a:	83 c4 10             	add    $0x10,%esp
   1107d:	8d 65 f8             	lea    -0x8(%ebp),%esp
   11080:	5b                   	pop    %ebx
   11081:	5e                   	pop    %esi
   11082:	5d                   	pop    %ebp
   11083:	e9 e8 fa ff ff       	jmp    10b70 <sched_next_rr>
   11088:	e9 97 26 00 00       	jmp    13724 <sys_exit.cold>
   1108d:	8d 76 00             	lea    0x0(%esi),%esi

00011090 <sys_getstats>:
   11090:	55                   	push   %ebp
   11091:	89 e5                	mov    %esp,%ebp
   11093:	57                   	push   %edi
   11094:	56                   	push   %esi
   11095:	53                   	push   %ebx
   11096:	83 ec 1c             	sub    $0x1c,%esp
   11099:	8b 7d 08             	mov    0x8(%ebp),%edi
   1109c:	8b 75 0c             	mov    0xc(%ebp),%esi
   1109f:	85 ff                	test   %edi,%edi
   110a1:	78 3a                	js     110dd <sys_getstats+0x4d>
   110a3:	85 f6                	test   %esi,%esi
   110a5:	0f 84 8d 00 00 00    	je     11138 <sys_getstats+0xa8>
   110ab:	83 ec 04             	sub    $0x4,%esp
   110ae:	6a 1c                	push   $0x1c
   110b0:	56                   	push   %esi
   110b1:	6a 01                	push   $0x1
   110b3:	e8 98 08 00 00       	call   11950 <access_ok>
   110b8:	83 c4 10             	add    $0x10,%esp
   110bb:	85 c0                	test   %eax,%eax
   110bd:	74 79                	je     11138 <sys_getstats+0xa8>
   110bf:	31 c0                	xor    %eax,%eax
   110c1:	8d b4 26 00 00 00 00 	lea    0x0(%esi,%eiz,1),%esi
   110c8:	89 c3                	mov    %eax,%ebx
   110ca:	c1 e3 0c             	shl    $0xc,%ebx
   110cd:	39 bb 00 60 01 00    	cmp    %edi,0x16000(%ebx)
   110d3:	74 1b                	je     110f0 <sys_getstats+0x60>
   110d5:	83 c0 01             	add    $0x1,%eax
   110d8:	83 f8 0a             	cmp    $0xa,%eax
   110db:	75 eb                	jne    110c8 <sys_getstats+0x38>
   110dd:	b8 ff ff ff ff       	mov    $0xffffffff,%eax
   110e2:	8d 65 f4             	lea    -0xc(%ebp),%esp
   110e5:	5b                   	pop    %ebx
   110e6:	5e                   	pop    %esi
   110e7:	5f                   	pop    %edi
   110e8:	5d                   	pop    %ebp
   110e9:	c3                   	ret
   110ea:	8d b6 00 00 00 00    	lea    0x0(%esi),%esi
   110f0:	8d bb 00 60 01 00    	lea    0x16000(%ebx),%edi
   110f6:	83 ec 0c             	sub    $0xc,%esp
   110f9:	57                   	push   %edi
   110fa:	e8 f1 f7 ff ff       	call   108f0 <finishSystemTime>
   110ff:	8b 93 30 60 01 00    	mov    0x16030(%ebx),%edx
   11105:	83 c4 0c             	add    $0xc,%esp
   11108:	29 57 28             	sub    %edx,0x28(%edi)
   1110b:	a1 4c 58 01 00       	mov    0x1584c,%eax
   11110:	81 c3 18 60 01 00    	add    $0x16018,%ebx
   11116:	89 55 e4             	mov    %edx,-0x1c(%ebp)
   11119:	89 47 30             	mov    %eax,0x30(%edi)
   1111c:	6a 1c                	push   $0x1c
   1111e:	56                   	push   %esi
   1111f:	53                   	push   %ebx
   11120:	e8 bb 07 00 00       	call   118e0 <copy_to_user>
   11125:	8b 55 e4             	mov    -0x1c(%ebp),%edx
   11128:	83 c4 10             	add    $0x10,%esp
   1112b:	31 c0                	xor    %eax,%eax
   1112d:	89 57 30             	mov    %edx,0x30(%edi)
   11130:	8d 65 f4             	lea    -0xc(%ebp),%esp
   11133:	5b                   	pop    %ebx
   11134:	5e                   	pop    %esi
   11135:	5f                   	pop    %edi
   11136:	5d                   	pop    %ebp
   11137:	c3                   	ret
   11138:	b8 f2 ff ff ff       	mov    $0xfffffff2,%eax
   1113d:	eb a3                	jmp    110e2 <sys_getstats+0x52>
   1113f:	90                   	nop

00011140 <sys_clone>:
   11140:	55                   	push   %ebp
   11141:	89 e5                	mov    %esp,%ebp
   11143:	57                   	push   %edi
   11144:	56                   	push   %esi
   11145:	53                   	push   %ebx
   11146:	83 ec 0c             	sub    $0xc,%esp
   11149:	8b 4d 0c             	mov    0xc(%ebp),%ecx
   1114c:	8b 75 08             	mov    0x8(%ebp),%esi
   1114f:	85 c9                	test   %ecx,%ecx
   11151:	0f 84 0e 01 00 00    	je     11265 <sys_clone+0x125>
   11157:	85 f6                	test   %esi,%esi
   11159:	0f 84 06 01 00 00    	je     11265 <sys_clone+0x125>
   1115f:	83 ec 04             	sub    $0x4,%esp
   11162:	6a 04                	push   $0x4
   11164:	56                   	push   %esi
   11165:	6a 00                	push   $0x0
   11167:	e8 e4 07 00 00       	call   11950 <access_ok>
   1116c:	83 c4 10             	add    $0x10,%esp
   1116f:	85 c0                	test   %eax,%eax
   11171:	0f 84 ee 00 00 00    	je     11265 <sys_clone+0x125>
   11177:	83 ec 04             	sub    $0x4,%esp
   1117a:	6a 04                	push   $0x4
   1117c:	ff 75 0c             	push   0xc(%ebp)
   1117f:	6a 01                	push   $0x1
   11181:	e8 ca 07 00 00       	call   11950 <access_ok>
   11186:	83 c4 10             	add    $0x10,%esp
   11189:	85 c0                	test   %eax,%eax
   1118b:	0f 84 d4 00 00 00    	je     11265 <sys_clone+0x125>
   11191:	83 ec 0c             	sub    $0xc,%esp
   11194:	68 58 58 01 00       	push   $0x15858
   11199:	e8 b2 0a 00 00       	call   11c50 <list_empty>
   1119e:	83 c4 10             	add    $0x10,%esp
   111a1:	89 c3                	mov    %eax,%ebx
   111a3:	85 c0                	test   %eax,%eax
   111a5:	0f 85 c1 00 00 00    	jne    1126c <sys_clone+0x12c>
   111ab:	8b 3d 58 58 01 00    	mov    0x15858,%edi
   111b1:	83 ec 0c             	sub    $0xc,%esp
   111b4:	57                   	push   %edi
   111b5:	e8 56 0a 00 00       	call   11c10 <list_del>
   111ba:	89 3c 24             	mov    %edi,(%esp)
   111bd:	e8 5e f4 ff ff       	call   10620 <list_head_to_task_struct>
   111c2:	89 c7                	mov    %eax,%edi
   111c4:	e8 e7 f6 ff ff       	call   108b0 <current>
   111c9:	83 c4 0c             	add    $0xc,%esp
   111cc:	68 00 10 00 00       	push   $0x1000
   111d1:	57                   	push   %edi
   111d2:	50                   	push   %eax
   111d3:	e8 28 06 00 00       	call   11800 <copy_data>
   111d8:	8b 4f 14             	mov    0x14(%edi),%ecx
   111db:	b8 00 a0 02 00       	mov    $0x2a000,%eax
   111e0:	83 c4 10             	add    $0x10,%esp
   111e3:	eb 10                	jmp    111f5 <sys_clone+0xb5>
   111e5:	8d 76 00             	lea    0x0(%esi),%esi
   111e8:	83 c3 01             	add    $0x1,%ebx
   111eb:	05 00 10 00 00       	add    $0x1000,%eax
   111f0:	83 fb 0a             	cmp    $0xa,%ebx
   111f3:	74 7e                	je     11273 <sys_clone+0x133>
   111f5:	39 c1                	cmp    %eax,%ecx
   111f7:	75 ef                	jne    111e8 <sys_clone+0xa8>
   111f9:	a1 00 58 01 00       	mov    0x15800,%eax
   111fe:	83 ec 0c             	sub    $0xc,%esp
   11201:	83 04 9d 20 58 01 00 	addl   $0x1,0x15820(,%ebx,4)
   11208:	01 
   11209:	83 c0 01             	add    $0x1,%eax
   1120c:	a3 00 58 01 00       	mov    %eax,0x15800
   11211:	89 07                	mov    %eax,(%edi)
   11213:	8d 47 18             	lea    0x18(%edi),%eax
   11216:	50                   	push   %eax
   11217:	e8 f4 f7 ff ff       	call   10a10 <init_stats>
   1121c:	8d 87 b4 0f 00 00    	lea    0xfb4(%edi),%eax
   11222:	c7 87 b8 0f 00 00 a0 	movl   $0x10ca0,0xfb8(%edi)
   11229:	0c 01 00 
   1122c:	89 47 10             	mov    %eax,0x10(%edi)
   1122f:	8b 45 0c             	mov    0xc(%ebp),%eax
   11232:	c7 87 b4 0f 00 00 00 	movl   $0x0,0xfb4(%edi)
   11239:	00 00 00 
   1123c:	89 87 f8 0f 00 00    	mov    %eax,0xff8(%edi)
   11242:	89 b7 ec 0f 00 00    	mov    %esi,0xfec(%edi)
   11248:	58                   	pop    %eax
   11249:	8d 47 08             	lea    0x8(%edi),%eax
   1124c:	5a                   	pop    %edx
   1124d:	68 50 58 01 00       	push   $0x15850
   11252:	50                   	push   %eax
   11253:	e8 88 09 00 00       	call   11be0 <list_add_tail>
   11258:	8b 07                	mov    (%edi),%eax
   1125a:	83 c4 10             	add    $0x10,%esp
   1125d:	8d 65 f4             	lea    -0xc(%ebp),%esp
   11260:	5b                   	pop    %ebx
   11261:	5e                   	pop    %esi
   11262:	5f                   	pop    %edi
   11263:	5d                   	pop    %ebp
   11264:	c3                   	ret
   11265:	b8 f2 ff ff ff       	mov    $0xfffffff2,%eax
   1126a:	eb f1                	jmp    1125d <sys_clone+0x11d>
   1126c:	b8 f4 ff ff ff       	mov    $0xfffffff4,%eax
   11271:	eb ea                	jmp    1125d <sys_clone+0x11d>
   11273:	e9 b3 24 00 00       	jmp    1372b <sys_clone.cold>
   11278:	8d b4 26 00 00 00 00 	lea    0x0(%esi,%eiz,1),%esi
   1127f:	90                   	nop

00011280 <sys_sem_init>:
   11280:	e9 ab 0a 00 00       	jmp    11d30 <sem_init>
   11285:	8d b4 26 00 00 00 00 	lea    0x0(%esi,%eiz,1),%esi
   1128c:	8d 74 26 00          	lea    0x0(%esi,%eiz,1),%esi

00011290 <sys_sem_wait>:
   11290:	e9 6b 0b 00 00       	jmp    11e00 <sem_wait>
   11295:	8d b4 26 00 00 00 00 	lea    0x0(%esi,%eiz,1),%esi
   1129c:	8d 74 26 00          	lea    0x0(%esi,%eiz,1),%esi

000112a0 <sys_sem_signal>:
   112a0:	e9 fb 0b 00 00       	jmp    11ea0 <sem_signal>
   112a5:	8d b4 26 00 00 00 00 	lea    0x0(%esi,%eiz,1),%esi
   112ac:	8d 74 26 00          	lea    0x0(%esi,%eiz,1),%esi

000112b0 <sys_sem_destroy>:
   112b0:	e9 fb 0c 00 00       	jmp    11fb0 <sem_destroy>
   112b5:	66 90                	xchg   %ax,%ax
   112b7:	66 90                	xchg   %ax,%ax
   112b9:	66 90                	xchg   %ax,%ax
   112bb:	66 90                	xchg   %ax,%ax
   112bd:	66 90                	xchg   %ax,%ax
   112bf:	90                   	nop

000112c0 <init_dir_pages>:
   112c0:	55                   	push   %ebp
   112c1:	b9 00 00 02 00       	mov    $0x20000,%ecx
   112c6:	31 c0                	xor    %eax,%eax
   112c8:	89 e5                	mov    %esp,%ebp
   112ca:	53                   	push   %ebx
   112cb:	8d 74 26 00          	lea    0x0(%esi,%eiz,1),%esi
   112cf:	90                   	nop
   112d0:	89 ca                	mov    %ecx,%edx
   112d2:	89 c3                	mov    %eax,%ebx
   112d4:	83 c0 01             	add    $0x1,%eax
   112d7:	81 c1 00 10 00 00    	add    $0x1000,%ecx
   112dd:	81 e2 00 f0 ff ff    	and    $0xfffff000,%edx
   112e3:	c1 e3 0c             	shl    $0xc,%ebx
   112e6:	83 ca 07             	or     $0x7,%edx
   112e9:	89 93 00 a0 02 00    	mov    %edx,0x2a000(%ebx)
   112ef:	83 f8 0a             	cmp    $0xa,%eax
   112f2:	75 dc                	jne    112d0 <init_dir_pages+0x10>
   112f4:	8b 5d fc             	mov    -0x4(%ebp),%ebx
   112f7:	c9                   	leave
   112f8:	c3                   	ret
   112f9:	8d b4 26 00 00 00 00 	lea    0x0(%esi,%eiz,1),%esi

00011300 <init_table_pages>:
   11300:	55                   	push   %ebp
   11301:	b9 00 10 02 00       	mov    $0x21000,%ecx
   11306:	66 0f ef c0          	pxor   %xmm0,%xmm0
   1130a:	89 e5                	mov    %esp,%ebp
   1130c:	57                   	push   %edi
   1130d:	31 ff                	xor    %edi,%edi
   1130f:	56                   	push   %esi
   11310:	53                   	push   %ebx
   11311:	bb 00 00 02 00       	mov    $0x20000,%ebx
   11316:	89 de                	mov    %ebx,%esi
   11318:	89 fb                	mov    %edi,%ebx
   1131a:	83 ec 08             	sub    $0x8,%esp
   1131d:	8d 76 00             	lea    0x0(%esi),%esi
   11320:	89 f0                	mov    %esi,%eax
   11322:	8d b6 00 00 00 00    	lea    0x0(%esi),%esi
   11328:	0f 29 00             	movaps %xmm0,(%eax)
   1132b:	83 c0 10             	add    $0x10,%eax
   1132e:	39 c8                	cmp    %ecx,%eax
   11330:	75 f6                	jne    11328 <init_table_pages+0x28>
   11332:	89 5d f0             	mov    %ebx,-0x10(%ebp)
   11335:	89 df                	mov    %ebx,%edi
   11337:	ba 01 00 00 00       	mov    $0x1,%edx
   1133c:	89 75 ec             	mov    %esi,-0x14(%ebp)
   1133f:	c1 e7 0a             	shl    $0xa,%edi
   11342:	8d b6 00 00 00 00    	lea    0x0(%esi),%esi
   11348:	8d 34 17             	lea    (%edi,%edx,1),%esi
   1134b:	89 d0                	mov    %edx,%eax
   1134d:	83 c2 01             	add    $0x1,%edx
   11350:	8b 1c b5 00 00 02 00 	mov    0x20000(,%esi,4),%ebx
   11357:	c1 e0 0c             	shl    $0xc,%eax
   1135a:	83 c8 03             	or     $0x3,%eax
   1135d:	81 e3 fc 0f 00 00    	and    $0xffc,%ebx
   11363:	09 d8                	or     %ebx,%eax
   11365:	89 04 b5 00 00 02 00 	mov    %eax,0x20000(,%esi,4)
   1136c:	81 fa 00 01 00 00    	cmp    $0x100,%edx
   11372:	75 d4                	jne    11348 <init_table_pages+0x48>
   11374:	8b 5d f0             	mov    -0x10(%ebp),%ebx
   11377:	8b 75 ec             	mov    -0x14(%ebp),%esi
   1137a:	81 c1 00 10 00 00    	add    $0x1000,%ecx
   11380:	83 c3 01             	add    $0x1,%ebx
   11383:	81 c6 00 10 00 00    	add    $0x1000,%esi
   11389:	83 fb 0a             	cmp    $0xa,%ebx
   1138c:	75 92                	jne    11320 <init_table_pages+0x20>
   1138e:	83 c4 08             	add    $0x8,%esp
   11391:	5b                   	pop    %ebx
   11392:	5e                   	pop    %esi
   11393:	5f                   	pop    %edi
   11394:	5d                   	pop    %ebp
   11395:	c3                   	ret
   11396:	8d b4 26 00 00 00 00 	lea    0x0(%esi,%eiz,1),%esi
   1139d:	8d 76 00             	lea    0x0(%esi),%esi

000113a0 <set_user_pages>:
   113a0:	55                   	push   %ebp
   113a1:	89 e5                	mov    %esp,%ebp
   113a3:	53                   	push   %ebx
   113a4:	83 ec 10             	sub    $0x10,%esp
   113a7:	ff 75 08             	push   0x8(%ebp)
   113aa:	e8 91 f2 ff ff       	call   10640 <get_PT>
   113af:	83 c4 10             	add    $0x10,%esp
   113b2:	89 c1                	mov    %eax,%ecx
   113b4:	8d 90 00 04 00 00    	lea    0x400(%eax),%edx
   113ba:	8d 98 20 04 00 00    	lea    0x420(%eax),%ebx
   113c0:	b8 00 01 00 00       	mov    $0x100,%eax
   113c5:	eb 13                	jmp    113da <set_user_pages+0x3a>
   113c7:	8d b4 26 00 00 00 00 	lea    0x0(%esi,%eiz,1),%esi
   113ce:	66 90                	xchg   %ax,%ax
   113d0:	83 c0 02             	add    $0x2,%eax
   113d3:	3d 00 04 00 00       	cmp    $0x400,%eax
   113d8:	74 71                	je     1144b <set_user_pages+0xab>
   113da:	80 b8 e0 58 01 00 00 	cmpb   $0x0,0x158e0(%eax)
   113e1:	75 ed                	jne    113d0 <set_user_pages+0x30>
   113e3:	c6 80 e0 58 01 00 01 	movb   $0x1,0x158e0(%eax)
   113ea:	25 ff ff 0f 00       	and    $0xfffff,%eax
   113ef:	c1 e0 0c             	shl    $0xc,%eax
   113f2:	83 c2 04             	add    $0x4,%edx
   113f5:	83 c8 05             	or     $0x5,%eax
   113f8:	89 42 fc             	mov    %eax,-0x4(%edx)
   113fb:	39 da                	cmp    %ebx,%edx
   113fd:	75 c1                	jne    113c0 <set_user_pages+0x20>
   113ff:	81 c1 70 04 00 00    	add    $0x470,%ecx
   11405:	8d 76 00             	lea    0x0(%esi),%esi
   11408:	b8 00 01 00 00       	mov    $0x100,%eax
   1140d:	eb 0b                	jmp    1141a <set_user_pages+0x7a>
   1140f:	90                   	nop
   11410:	83 c0 02             	add    $0x2,%eax
   11413:	3d 00 04 00 00       	cmp    $0x400,%eax
   11418:	74 2a                	je     11444 <set_user_pages+0xa4>
   1141a:	80 b8 e0 58 01 00 00 	cmpb   $0x0,0x158e0(%eax)
   11421:	75 ed                	jne    11410 <set_user_pages+0x70>
   11423:	c6 80 e0 58 01 00 01 	movb   $0x1,0x158e0(%eax)
   1142a:	25 ff ff 0f 00       	and    $0xfffff,%eax
   1142f:	c1 e0 0c             	shl    $0xc,%eax
   11432:	83 c2 04             	add    $0x4,%edx
   11435:	83 c8 07             	or     $0x7,%eax
   11438:	89 42 fc             	mov    %eax,-0x4(%edx)
   1143b:	39 ca                	cmp    %ecx,%edx
   1143d:	75 c9                	jne    11408 <set_user_pages+0x68>
   1143f:	8b 5d fc             	mov    -0x4(%ebp),%ebx
   11442:	c9                   	leave
   11443:	c3                   	ret
   11444:	b8 ff ff 0f 00       	mov    $0xfffff,%eax
   11449:	eb e4                	jmp    1142f <set_user_pages+0x8f>
   1144b:	b8 ff ff 0f 00       	mov    $0xfffff,%eax
   11450:	eb 9d                	jmp    113ef <set_user_pages+0x4f>
   11452:	8d b4 26 00 00 00 00 	lea    0x0(%esi,%eiz,1),%esi
   11459:	8d b4 26 00 00 00 00 	lea    0x0(%esi,%eiz,1),%esi

00011460 <set_cr3>:
   11460:	55                   	push   %ebp
   11461:	89 e5                	mov    %esp,%ebp
   11463:	8b 45 08             	mov    0x8(%ebp),%eax
   11466:	0f 22 d8             	mov    %eax,%cr3
   11469:	5d                   	pop    %ebp
   1146a:	c3                   	ret
   1146b:	8d 74 26 00          	lea    0x0(%esi,%eiz,1),%esi
   1146f:	90                   	nop

00011470 <set_pe_flag>:
   11470:	0f 20 c0             	mov    %cr0,%eax
   11473:	0d 00 00 00 80       	or     $0x80000000,%eax
   11478:	0f 22 c0             	mov    %eax,%cr0
   1147b:	c3                   	ret
   1147c:	8d 74 26 00          	lea    0x0(%esi,%eiz,1),%esi

00011480 <init_mm>:
   11480:	55                   	push   %ebp
   11481:	89 e5                	mov    %esp,%ebp
   11483:	53                   	push   %ebx
   11484:	83 ec 04             	sub    $0x4,%esp
   11487:	e8 74 fe ff ff       	call   11300 <init_table_pages>
   1148c:	ba e0 58 01 00       	mov    $0x158e0,%edx
   11491:	66 0f ef c0          	pxor   %xmm0,%xmm0
   11495:	89 d0                	mov    %edx,%eax
   11497:	8d b4 26 00 00 00 00 	lea    0x0(%esi,%eiz,1),%esi
   1149e:	66 90                	xchg   %ax,%ax
   114a0:	0f 29 00             	movaps %xmm0,(%eax)
   114a3:	83 c0 10             	add    $0x10,%eax
   114a6:	3d e0 5c 01 00       	cmp    $0x15ce0,%eax
   114ab:	75 f3                	jne    114a0 <init_mm+0x20>
   114ad:	66 0f 6f 05 b0 4e 01 	movdqa 0x14eb0,%xmm0
   114b4:	00 
   114b5:	8d 76 00             	lea    0x0(%esi),%esi
   114b8:	0f 29 02             	movaps %xmm0,(%edx)
   114bb:	83 c2 10             	add    $0x10,%edx
   114be:	81 fa e0 59 01 00    	cmp    $0x159e0,%edx
   114c4:	75 f2                	jne    114b8 <init_mm+0x38>
   114c6:	b9 00 00 02 00       	mov    $0x20000,%ecx
   114cb:	31 c0                	xor    %eax,%eax
   114cd:	8d 76 00             	lea    0x0(%esi),%esi
   114d0:	89 ca                	mov    %ecx,%edx
   114d2:	89 c3                	mov    %eax,%ebx
   114d4:	83 c0 01             	add    $0x1,%eax
   114d7:	81 c1 00 10 00 00    	add    $0x1000,%ecx
   114dd:	81 e2 00 f0 ff ff    	and    $0xfffff000,%edx
   114e3:	c1 e3 0c             	shl    $0xc,%ebx
   114e6:	83 ca 07             	or     $0x7,%edx
   114e9:	89 93 00 a0 02 00    	mov    %edx,0x2a000(%ebx)
   114ef:	83 f8 0a             	cmp    $0xa,%eax
   114f2:	75 dc                	jne    114d0 <init_mm+0x50>
   114f4:	83 ec 0c             	sub    $0xc,%esp
   114f7:	68 00 60 01 00       	push   $0x16000
   114fc:	e8 5f f1 ff ff       	call   10660 <allocate_DIR>
   11501:	c7 04 24 00 60 01 00 	movl   $0x16000,(%esp)
   11508:	e8 23 f1 ff ff       	call   10630 <get_DIR>
   1150d:	0f 22 d8             	mov    %eax,%cr3
   11510:	0f 20 c0             	mov    %cr0,%eax
   11513:	0d 00 00 00 80       	or     $0x80000000,%eax
   11518:	0f 22 c0             	mov    %eax,%cr0
   1151b:	8b 5d fc             	mov    -0x4(%ebp),%ebx
   1151e:	83 c4 10             	add    $0x10,%esp
   11521:	c9                   	leave
   11522:	c3                   	ret
   11523:	8d b4 26 00 00 00 00 	lea    0x0(%esi,%eiz,1),%esi
   1152a:	8d b6 00 00 00 00    	lea    0x0(%esi),%esi

00011530 <setGdt>:
   11530:	55                   	push   %ebp
   11531:	b8 60 58 01 00       	mov    $0x15860,%eax
   11536:	89 c1                	mov    %eax,%ecx
   11538:	c1 e9 10             	shr    $0x10,%ecx
   1153b:	89 e5                	mov    %esp,%ebp
   1153d:	83 ec 14             	sub    $0x14,%esp
   11540:	8b 15 a4 4f 01 00    	mov    0x14fa4,%edx
   11546:	66 89 42 32          	mov    %ax,0x32(%edx)
   1154a:	c1 e8 18             	shr    $0x18,%eax
   1154d:	88 42 37             	mov    %al,0x37(%edx)
   11550:	b8 00 08 00 00       	mov    $0x800,%eax
   11555:	88 4a 34             	mov    %cl,0x34(%edx)
   11558:	89 15 ca 58 01 00    	mov    %edx,0x158ca
   1155e:	66 a3 c8 58 01 00    	mov    %ax,0x158c8
   11564:	68 c8 58 01 00       	push   $0x158c8
   11569:	e8 82 05 00 00       	call   11af0 <set_gdt_reg>
   1156e:	83 c4 10             	add    $0x10,%esp
   11571:	c9                   	leave
   11572:	c3                   	ret
   11573:	8d b4 26 00 00 00 00 	lea    0x0(%esi,%eiz,1),%esi
   1157a:	8d b6 00 00 00 00    	lea    0x0(%esi),%esi

00011580 <setTSS>:
   11580:	55                   	push   %ebp
   11581:	31 c0                	xor    %eax,%eax
   11583:	ba 18 00 00 00       	mov    $0x18,%edx
   11588:	31 c9                	xor    %ecx,%ecx
   1158a:	89 e5                	mov    %esp,%ebp
   1158c:	83 ec 14             	sub    $0x14,%esp
   1158f:	66 a3 60 58 01 00    	mov    %ax,0x15860
   11595:	31 c0                	xor    %eax,%eax
   11597:	66 0f 6f 05 c0 4e 01 	movdqa 0x14ec0,%xmm0
   1159e:	00 
   1159f:	66 a3 78 58 01 00    	mov    %ax,0x15878
   115a5:	b8 f0 bf 11 00       	mov    $0x11bff0,%eax
   115aa:	a3 9c 58 01 00       	mov    %eax,0x1589c
   115af:	b8 2b 00 00 00       	mov    $0x2b,%eax
   115b4:	66 a3 a8 58 01 00    	mov    %ax,0x158a8
   115ba:	b8 23 00 00 00       	mov    $0x23,%eax
   115bf:	66 a3 ac 58 01 00    	mov    %ax,0x158ac
   115c5:	b8 2b 00 00 00       	mov    $0x2b,%eax
   115ca:	66 89 15 68 58 01 00 	mov    %dx,0x15868
   115d1:	31 d2                	xor    %edx,%edx
   115d3:	66 a3 b0 58 01 00    	mov    %ax,0x158b0
   115d9:	b8 2b 00 00 00       	mov    $0x2b,%eax
   115de:	0f 11 05 7c 58 01 00 	movups %xmm0,0x1587c
   115e5:	66 0f 6f 05 d0 4e 01 	movdqa 0x14ed0,%xmm0
   115ec:	00 
   115ed:	66 89 0d 70 58 01 00 	mov    %cx,0x15870
   115f4:	31 c9                	xor    %ecx,%ecx
   115f6:	89 15 a0 58 01 00    	mov    %edx,0x158a0
   115fc:	31 d2                	xor    %edx,%edx
   115fe:	66 a3 b4 58 01 00    	mov    %ax,0x158b4
   11604:	b8 30 00 00 00       	mov    $0x30,%eax
   11609:	c7 05 64 58 01 00 00 	movl   $0x18000,0x15864
   11610:	80 01 00 
   11613:	c7 05 6c 58 01 00 00 	movl   $0x0,0x1586c
   1161a:	00 00 00 
   1161d:	c7 05 74 58 01 00 00 	movl   $0x0,0x15874
   11624:	00 00 00 
   11627:	c7 05 a4 58 01 00 00 	movl   $0x0,0x158a4
   1162e:	00 00 00 
   11631:	66 89 15 b8 58 01 00 	mov    %dx,0x158b8
   11638:	66 89 0d bc 58 01 00 	mov    %cx,0x158bc
   1163f:	66 a3 c0 58 01 00    	mov    %ax,0x158c0
   11645:	c7 05 c4 58 01 00 00 	movl   $0x0,0x158c4
   1164c:	00 00 00 
   1164f:	0f 11 05 8c 58 01 00 	movups %xmm0,0x1588c
   11656:	6a 30                	push   $0x30
   11658:	e8 b3 04 00 00       	call   11b10 <set_task_reg>
   1165d:	83 c4 10             	add    $0x10,%esp
   11660:	c9                   	leave
   11661:	c3                   	ret
   11662:	8d b4 26 00 00 00 00 	lea    0x0(%esi,%eiz,1),%esi
   11669:	8d b4 26 00 00 00 00 	lea    0x0(%esi,%eiz,1),%esi

00011670 <init_frames>:
   11670:	ba e0 58 01 00       	mov    $0x158e0,%edx
   11675:	b9 e0 5c 01 00       	mov    $0x15ce0,%ecx
   1167a:	66 0f ef c0          	pxor   %xmm0,%xmm0
   1167e:	89 d0                	mov    %edx,%eax
   11680:	0f 29 00             	movaps %xmm0,(%eax)
   11683:	83 c0 10             	add    $0x10,%eax
   11686:	39 c1                	cmp    %eax,%ecx
   11688:	75 f6                	jne    11680 <init_frames+0x10>
   1168a:	66 0f 6f 05 b0 4e 01 	movdqa 0x14eb0,%xmm0
   11691:	00 
   11692:	8d b6 00 00 00 00    	lea    0x0(%esi),%esi
   11698:	0f 29 02             	movaps %xmm0,(%edx)
   1169b:	83 c2 10             	add    $0x10,%edx
   1169e:	81 fa e0 59 01 00    	cmp    $0x159e0,%edx
   116a4:	75 f2                	jne    11698 <init_frames+0x28>
   116a6:	31 c0                	xor    %eax,%eax
   116a8:	c3                   	ret
   116a9:	8d b4 26 00 00 00 00 	lea    0x0(%esi,%eiz,1),%esi

000116b0 <alloc_frame>:
   116b0:	b8 00 01 00 00       	mov    $0x100,%eax
   116b5:	eb 13                	jmp    116ca <alloc_frame+0x1a>
   116b7:	8d b4 26 00 00 00 00 	lea    0x0(%esi,%eiz,1),%esi
   116be:	66 90                	xchg   %ax,%ax
   116c0:	83 c0 02             	add    $0x2,%eax
   116c3:	3d 00 04 00 00       	cmp    $0x400,%eax
   116c8:	74 11                	je     116db <alloc_frame+0x2b>
   116ca:	80 b8 e0 58 01 00 00 	cmpb   $0x0,0x158e0(%eax)
   116d1:	75 ed                	jne    116c0 <alloc_frame+0x10>
   116d3:	c6 80 e0 58 01 00 01 	movb   $0x1,0x158e0(%eax)
   116da:	c3                   	ret
   116db:	b8 ff ff ff ff       	mov    $0xffffffff,%eax
   116e0:	c3                   	ret
   116e1:	8d b4 26 00 00 00 00 	lea    0x0(%esi,%eiz,1),%esi
   116e8:	8d b4 26 00 00 00 00 	lea    0x0(%esi,%eiz,1),%esi
   116ef:	90                   	nop

000116f0 <free_user_pages>:
   116f0:	55                   	push   %ebp
   116f1:	89 e5                	mov    %esp,%ebp
   116f3:	53                   	push   %ebx
   116f4:	83 ec 10             	sub    $0x10,%esp
   116f7:	ff 75 08             	push   0x8(%ebp)
   116fa:	e8 41 ef ff ff       	call   10640 <get_PT>
   116ff:	83 c4 10             	add    $0x10,%esp
   11702:	8d 90 20 04 00 00    	lea    0x420(%eax),%edx
   11708:	8d 98 70 04 00 00    	lea    0x470(%eax),%ebx
   1170e:	66 90                	xchg   %ax,%ax
   11710:	8b 02                	mov    (%edx),%eax
   11712:	c1 e8 0c             	shr    $0xc,%eax
   11715:	8d 88 ff fe ff ff    	lea    -0x101(%eax),%ecx
   1171b:	81 f9 fe 02 00 00    	cmp    $0x2fe,%ecx
   11721:	77 07                	ja     1172a <free_user_pages+0x3a>
   11723:	c6 80 e0 58 01 00 00 	movb   $0x0,0x158e0(%eax)
   1172a:	c7 02 00 00 00 00    	movl   $0x0,(%edx)
   11730:	83 c2 04             	add    $0x4,%edx
   11733:	39 d3                	cmp    %edx,%ebx
   11735:	75 d9                	jne    11710 <free_user_pages+0x20>
   11737:	8b 5d fc             	mov    -0x4(%ebp),%ebx
   1173a:	c9                   	leave
   1173b:	c3                   	ret
   1173c:	8d 74 26 00          	lea    0x0(%esi,%eiz,1),%esi

00011740 <free_frame>:
   11740:	55                   	push   %ebp
   11741:	89 e5                	mov    %esp,%ebp
   11743:	8b 45 08             	mov    0x8(%ebp),%eax
   11746:	8d 90 ff fe ff ff    	lea    -0x101(%eax),%edx
   1174c:	81 fa fe 02 00 00    	cmp    $0x2fe,%edx
   11752:	77 07                	ja     1175b <free_frame+0x1b>
   11754:	c6 80 e0 58 01 00 00 	movb   $0x0,0x158e0(%eax)
   1175b:	5d                   	pop    %ebp
   1175c:	c3                   	ret
   1175d:	8d 76 00             	lea    0x0(%esi),%esi

00011760 <set_ss_pag>:
   11760:	55                   	push   %ebp
   11761:	89 e5                	mov    %esp,%ebp
   11763:	8b 55 08             	mov    0x8(%ebp),%edx
   11766:	8b 45 0c             	mov    0xc(%ebp),%eax
   11769:	8d 04 82             	lea    (%edx,%eax,4),%eax
   1176c:	8b 55 10             	mov    0x10(%ebp),%edx
   1176f:	c1 e2 0c             	shl    $0xc,%edx
   11772:	83 ca 07             	or     $0x7,%edx
   11775:	89 10                	mov    %edx,(%eax)
   11777:	5d                   	pop    %ebp
   11778:	c3                   	ret
   11779:	8d b4 26 00 00 00 00 	lea    0x0(%esi,%eiz,1),%esi

00011780 <del_ss_pag>:
   11780:	55                   	push   %ebp
   11781:	89 e5                	mov    %esp,%ebp
   11783:	8b 45 08             	mov    0x8(%ebp),%eax
   11786:	8b 55 0c             	mov    0xc(%ebp),%edx
   11789:	c7 04 90 00 00 00 00 	movl   $0x0,(%eax,%edx,4)
   11790:	5d                   	pop    %ebp
   11791:	c3                   	ret
   11792:	8d b4 26 00 00 00 00 	lea    0x0(%esi,%eiz,1),%esi
   11799:	8d b4 26 00 00 00 00 	lea    0x0(%esi,%eiz,1),%esi

000117a0 <get_frame>:
   117a0:	55                   	push   %ebp
   117a1:	89 e5                	mov    %esp,%ebp
   117a3:	8b 45 08             	mov    0x8(%ebp),%eax
   117a6:	8b 55 0c             	mov    0xc(%ebp),%edx
   117a9:	5d                   	pop    %ebp
   117aa:	8b 04 90             	mov    (%eax,%edx,4),%eax
   117ad:	c1 e8 0c             	shr    $0xc,%eax
   117b0:	c3                   	ret
   117b1:	66 90                	xchg   %ax,%ax
   117b3:	66 90                	xchg   %ax,%ax
   117b5:	66 90                	xchg   %ax,%ax
   117b7:	66 90                	xchg   %ax,%ax
   117b9:	66 90                	xchg   %ax,%ax
   117bb:	66 90                	xchg   %ax,%ax
   117bd:	66 90                	xchg   %ax,%ax
   117bf:	90                   	nop

000117c0 <sys_write_console>:
   117c0:	55                   	push   %ebp
   117c1:	89 e5                	mov    %esp,%ebp
   117c3:	57                   	push   %edi
   117c4:	56                   	push   %esi
   117c5:	53                   	push   %ebx
   117c6:	83 ec 0c             	sub    $0xc,%esp
   117c9:	8b 7d 0c             	mov    0xc(%ebp),%edi
   117cc:	85 ff                	test   %edi,%edi
   117ce:	7e 26                	jle    117f6 <sys_write_console+0x36>
   117d0:	8b 5d 08             	mov    0x8(%ebp),%ebx
   117d3:	8d 34 3b             	lea    (%ebx,%edi,1),%esi
   117d6:	8d b4 26 00 00 00 00 	lea    0x0(%esi,%eiz,1),%esi
   117dd:	8d 76 00             	lea    0x0(%esi),%esi
   117e0:	0f be 03             	movsbl (%ebx),%eax
   117e3:	83 ec 0c             	sub    $0xc,%esp
   117e6:	83 c3 01             	add    $0x1,%ebx
   117e9:	50                   	push   %eax
   117ea:	e8 c1 ec ff ff       	call   104b0 <printc>
   117ef:	83 c4 10             	add    $0x10,%esp
   117f2:	39 f3                	cmp    %esi,%ebx
   117f4:	75 ea                	jne    117e0 <sys_write_console+0x20>
   117f6:	8d 65 f4             	lea    -0xc(%ebp),%esp
   117f9:	89 f8                	mov    %edi,%eax
   117fb:	5b                   	pop    %ebx
   117fc:	5e                   	pop    %esi
   117fd:	5f                   	pop    %edi
   117fe:	5d                   	pop    %ebp
   117ff:	c3                   	ret

00011800 <copy_data>:
   11800:	55                   	push   %ebp
   11801:	89 e5                	mov    %esp,%ebp
   11803:	57                   	push   %edi
   11804:	56                   	push   %esi
   11805:	53                   	push   %ebx
   11806:	83 ec 04             	sub    $0x4,%esp
   11809:	8b 4d 10             	mov    0x10(%ebp),%ecx
   1180c:	8b 75 08             	mov    0x8(%ebp),%esi
   1180f:	8b 55 0c             	mov    0xc(%ebp),%edx
   11812:	83 f9 04             	cmp    $0x4,%ecx
   11815:	7e 49                	jle    11860 <copy_data+0x60>
   11817:	8d 41 fb             	lea    -0x5(%ecx),%eax
   1181a:	89 d7                	mov    %edx,%edi
   1181c:	c1 e8 02             	shr    $0x2,%eax
   1181f:	8d 1c 85 04 00 00 00 	lea    0x4(,%eax,4),%ebx
   11826:	89 45 f0             	mov    %eax,-0x10(%ebp)
   11829:	8d 04 1e             	lea    (%esi,%ebx,1),%eax
   1182c:	8d 74 26 00          	lea    0x0(%esi,%eiz,1),%esi
   11830:	a5                   	movsl  %ds:(%esi),%es:(%edi)
   11831:	39 c6                	cmp    %eax,%esi
   11833:	75 fb                	jne    11830 <copy_data+0x30>
   11835:	8b 75 f0             	mov    -0x10(%ebp),%esi
   11838:	01 da                	add    %ebx,%edx
   1183a:	f7 de                	neg    %esi
   1183c:	8d 4c b1 fc          	lea    -0x4(%ecx,%esi,4),%ecx
   11840:	85 c9                	test   %ecx,%ecx
   11842:	7e 0b                	jle    1184f <copy_data+0x4f>
   11844:	01 c1                	add    %eax,%ecx
   11846:	89 c6                	mov    %eax,%esi
   11848:	89 d7                	mov    %edx,%edi
   1184a:	a4                   	movsb  %ds:(%esi),%es:(%edi)
   1184b:	39 ce                	cmp    %ecx,%esi
   1184d:	75 fb                	jne    1184a <copy_data+0x4a>
   1184f:	83 c4 04             	add    $0x4,%esp
   11852:	5b                   	pop    %ebx
   11853:	5e                   	pop    %esi
   11854:	5f                   	pop    %edi
   11855:	5d                   	pop    %ebp
   11856:	c3                   	ret
   11857:	8d b4 26 00 00 00 00 	lea    0x0(%esi,%eiz,1),%esi
   1185e:	66 90                	xchg   %ax,%ax
   11860:	89 f0                	mov    %esi,%eax
   11862:	eb dc                	jmp    11840 <copy_data+0x40>
   11864:	8d b4 26 00 00 00 00 	lea    0x0(%esi,%eiz,1),%esi
   1186b:	8d 74 26 00          	lea    0x0(%esi,%eiz,1),%esi
   1186f:	90                   	nop

00011870 <copy_from_user>:
   11870:	55                   	push   %ebp
   11871:	89 e5                	mov    %esp,%ebp
   11873:	57                   	push   %edi
   11874:	56                   	push   %esi
   11875:	53                   	push   %ebx
   11876:	83 ec 04             	sub    $0x4,%esp
   11879:	8b 4d 10             	mov    0x10(%ebp),%ecx
   1187c:	8b 75 08             	mov    0x8(%ebp),%esi
   1187f:	8b 55 0c             	mov    0xc(%ebp),%edx
   11882:	83 f9 04             	cmp    $0x4,%ecx
   11885:	7e 49                	jle    118d0 <copy_from_user+0x60>
   11887:	8d 41 fb             	lea    -0x5(%ecx),%eax
   1188a:	89 d7                	mov    %edx,%edi
   1188c:	c1 e8 02             	shr    $0x2,%eax
   1188f:	8d 1c 85 04 00 00 00 	lea    0x4(,%eax,4),%ebx
   11896:	89 45 f0             	mov    %eax,-0x10(%ebp)
   11899:	8d 04 1e             	lea    (%esi,%ebx,1),%eax
   1189c:	8d 74 26 00          	lea    0x0(%esi,%eiz,1),%esi
   118a0:	a5                   	movsl  %ds:(%esi),%es:(%edi)
   118a1:	39 c6                	cmp    %eax,%esi
   118a3:	75 fb                	jne    118a0 <copy_from_user+0x30>
   118a5:	8b 75 f0             	mov    -0x10(%ebp),%esi
   118a8:	01 da                	add    %ebx,%edx
   118aa:	f7 de                	neg    %esi
   118ac:	8d 4c b1 fc          	lea    -0x4(%ecx,%esi,4),%ecx
   118b0:	85 c9                	test   %ecx,%ecx
   118b2:	7e 0b                	jle    118bf <copy_from_user+0x4f>
   118b4:	01 c1                	add    %eax,%ecx
   118b6:	89 c6                	mov    %eax,%esi
   118b8:	89 d7                	mov    %edx,%edi
   118ba:	a4                   	movsb  %ds:(%esi),%es:(%edi)
   118bb:	39 ce                	cmp    %ecx,%esi
   118bd:	75 fb                	jne    118ba <copy_from_user+0x4a>
   118bf:	83 c4 04             	add    $0x4,%esp
   118c2:	31 c0                	xor    %eax,%eax
   118c4:	5b                   	pop    %ebx
   118c5:	5e                   	pop    %esi
   118c6:	5f                   	pop    %edi
   118c7:	5d                   	pop    %ebp
   118c8:	c3                   	ret
   118c9:	8d b4 26 00 00 00 00 	lea    0x0(%esi,%eiz,1),%esi
   118d0:	89 f0                	mov    %esi,%eax
   118d2:	eb dc                	jmp    118b0 <copy_from_user+0x40>
   118d4:	8d b4 26 00 00 00 00 	lea    0x0(%esi,%eiz,1),%esi
   118db:	8d 74 26 00          	lea    0x0(%esi,%eiz,1),%esi
   118df:	90                   	nop

000118e0 <copy_to_user>:
   118e0:	55                   	push   %ebp
   118e1:	89 e5                	mov    %esp,%ebp
   118e3:	57                   	push   %edi
   118e4:	56                   	push   %esi
   118e5:	53                   	push   %ebx
   118e6:	83 ec 04             	sub    $0x4,%esp
   118e9:	8b 4d 10             	mov    0x10(%ebp),%ecx
   118ec:	8b 75 08             	mov    0x8(%ebp),%esi
   118ef:	8b 55 0c             	mov    0xc(%ebp),%edx
   118f2:	83 f9 04             	cmp    $0x4,%ecx
   118f5:	7e 49                	jle    11940 <copy_to_user+0x60>
   118f7:	8d 41 fb             	lea    -0x5(%ecx),%eax
   118fa:	89 d7                	mov    %edx,%edi
   118fc:	c1 e8 02             	shr    $0x2,%eax
   118ff:	89 c3                	mov    %eax,%ebx
   11901:	8d 04 85 04 00 00 00 	lea    0x4(,%eax,4),%eax
   11908:	89 45 f0             	mov    %eax,-0x10(%ebp)
   1190b:	01 f0                	add    %esi,%eax
   1190d:	8d 76 00             	lea    0x0(%esi),%esi
   11910:	a5                   	movsl  %ds:(%esi),%es:(%edi)
   11911:	39 c6                	cmp    %eax,%esi
   11913:	75 fb                	jne    11910 <copy_to_user+0x30>
   11915:	8b 7d f0             	mov    -0x10(%ebp),%edi
   11918:	f7 db                	neg    %ebx
   1191a:	8d 4c 99 fc          	lea    -0x4(%ecx,%ebx,4),%ecx
   1191e:	01 fa                	add    %edi,%edx
   11920:	85 c9                	test   %ecx,%ecx
   11922:	7e 0b                	jle    1192f <copy_to_user+0x4f>
   11924:	01 c1                	add    %eax,%ecx
   11926:	89 c6                	mov    %eax,%esi
   11928:	89 d7                	mov    %edx,%edi
   1192a:	a4                   	movsb  %ds:(%esi),%es:(%edi)
   1192b:	39 ce                	cmp    %ecx,%esi
   1192d:	75 fb                	jne    1192a <copy_to_user+0x4a>
   1192f:	83 c4 04             	add    $0x4,%esp
   11932:	31 c0                	xor    %eax,%eax
   11934:	5b                   	pop    %ebx
   11935:	5e                   	pop    %esi
   11936:	5f                   	pop    %edi
   11937:	5d                   	pop    %ebp
   11938:	c3                   	ret
   11939:	8d b4 26 00 00 00 00 	lea    0x0(%esi,%eiz,1),%esi
   11940:	89 f0                	mov    %esi,%eax
   11942:	eb dc                	jmp    11920 <copy_to_user+0x40>
   11944:	8d b4 26 00 00 00 00 	lea    0x0(%esi,%eiz,1),%esi
   1194b:	8d 74 26 00          	lea    0x0(%esi,%eiz,1),%esi
   1194f:	90                   	nop

00011950 <access_ok>:
   11950:	55                   	push   %ebp
   11951:	31 d2                	xor    %edx,%edx
   11953:	89 e5                	mov    %esp,%ebp
   11955:	8b 45 0c             	mov    0xc(%ebp),%eax
   11958:	89 c1                	mov    %eax,%ecx
   1195a:	03 45 10             	add    0x10(%ebp),%eax
   1195d:	c1 e9 0c             	shr    $0xc,%ecx
   11960:	c1 e8 0c             	shr    $0xc,%eax
   11963:	39 c8                	cmp    %ecx,%eax
   11965:	72 1b                	jb     11982 <access_ok+0x32>
   11967:	3d 1c 01 00 00       	cmp    $0x11c,%eax
   1196c:	0f 96 c0             	setbe  %al
   1196f:	83 7d 08 01          	cmpl   $0x1,0x8(%ebp)
   11973:	74 1b                	je     11990 <access_ok+0x40>
   11975:	31 d2                	xor    %edx,%edx
   11977:	81 f9 ff 00 00 00    	cmp    $0xff,%ecx
   1197d:	0f 97 c2             	seta   %dl
   11980:	21 c2                	and    %eax,%edx
   11982:	89 d0                	mov    %edx,%eax
   11984:	5d                   	pop    %ebp
   11985:	c3                   	ret
   11986:	8d b4 26 00 00 00 00 	lea    0x0(%esi,%eiz,1),%esi
   1198d:	8d 76 00             	lea    0x0(%esi),%esi
   11990:	81 f9 07 01 00 00    	cmp    $0x107,%ecx
   11996:	76 dd                	jbe    11975 <access_ok+0x25>
   11998:	ba 01 00 00 00       	mov    $0x1,%edx
   1199d:	84 c0                	test   %al,%al
   1199f:	75 e1                	jne    11982 <access_ok+0x32>
   119a1:	eb d2                	jmp    11975 <access_ok+0x25>
   119a3:	8d b4 26 00 00 00 00 	lea    0x0(%esi,%eiz,1),%esi
   119aa:	8d b6 00 00 00 00    	lea    0x0(%esi),%esi

000119b0 <get_ticks>:
   119b0:	55                   	push   %ebp
   119b1:	89 e5                	mov    %esp,%ebp
   119b3:	56                   	push   %esi
   119b4:	53                   	push   %ebx
   119b5:	0f 31                	rdtsc
   119b7:	31 db                	xor    %ebx,%ebx
   119b9:	89 d1                	mov    %edx,%ecx
   119bb:	89 c6                	mov    %eax,%esi
   119bd:	85 d2                	test   %edx,%edx
   119bf:	74 19                	je     119da <get_ticks+0x2a>
   119c1:	b8 a9 d7 7a 26       	mov    $0x267ad7a9,%eax
   119c6:	f7 e2                	mul    %edx
   119c8:	89 d0                	mov    %edx,%eax
   119ca:	89 d3                	mov    %edx,%ebx
   119cc:	c1 e8 0e             	shr    $0xe,%eax
   119cf:	c1 eb 0e             	shr    $0xe,%ebx
   119d2:	69 c0 c8 a9 01 00    	imul   $0x1a9c8,%eax,%eax
   119d8:	29 c1                	sub    %eax,%ecx
   119da:	89 f0                	mov    %esi,%eax
   119dc:	89 ca                	mov    %ecx,%edx
   119de:	b9 c8 a9 01 00       	mov    $0x1a9c8,%ecx
   119e3:	f7 f1                	div    %ecx
   119e5:	89 da                	mov    %ebx,%edx
   119e7:	5b                   	pop    %ebx
   119e8:	5e                   	pop    %esi
   119e9:	5d                   	pop    %ebp
   119ea:	c3                   	ret
   119eb:	8d 74 26 00          	lea    0x0(%esi,%eiz,1),%esi
   119ef:	90                   	nop

000119f0 <itoahex>:
   119f0:	55                   	push   %ebp
   119f1:	89 e5                	mov    %esp,%ebp
   119f3:	57                   	push   %edi
   119f4:	56                   	push   %esi
   119f5:	53                   	push   %ebx
   119f6:	83 ec 04             	sub    $0x4,%esp
   119f9:	8b 5d 0c             	mov    0xc(%ebp),%ebx
   119fc:	0f b7 05 e0 4e 01 00 	movzwl 0x14ee0,%eax
   11a03:	8b 55 08             	mov    0x8(%ebp),%edx
   11a06:	66 89 03             	mov    %ax,(%ebx)
   11a09:	85 d2                	test   %edx,%edx
   11a0b:	0f 84 8f 00 00 00    	je     11aa0 <itoahex+0xb0>
   11a11:	8d 73 02             	lea    0x2(%ebx),%esi
   11a14:	31 c9                	xor    %ecx,%ecx
   11a16:	bf 41 00 00 00       	mov    $0x41,%edi
   11a1b:	89 75 f0             	mov    %esi,-0x10(%ebp)
   11a1e:	eb 11                	jmp    11a31 <itoahex+0x41>
   11a20:	83 c0 30             	add    $0x30,%eax
   11a23:	c1 ea 04             	shr    $0x4,%edx
   11a26:	88 44 0b 02          	mov    %al,0x2(%ebx,%ecx,1)
   11a2a:	8d 41 01             	lea    0x1(%ecx),%eax
   11a2d:	74 24                	je     11a53 <itoahex+0x63>
   11a2f:	89 c1                	mov    %eax,%ecx
   11a31:	89 d0                	mov    %edx,%eax
   11a33:	83 e0 0f             	and    $0xf,%eax
   11a36:	83 f8 09             	cmp    $0x9,%eax
   11a39:	76 e5                	jbe    11a20 <itoahex+0x30>
   11a3b:	8d 70 f5             	lea    -0xb(%eax),%esi
   11a3e:	83 c0 37             	add    $0x37,%eax
   11a41:	83 fe 05             	cmp    $0x5,%esi
   11a44:	0f 43 c7             	cmovae %edi,%eax
   11a47:	c1 ea 04             	shr    $0x4,%edx
   11a4a:	88 44 0b 02          	mov    %al,0x2(%ebx,%ecx,1)
   11a4e:	8d 41 01             	lea    0x1(%ecx),%eax
   11a51:	75 dc                	jne    11a2f <itoahex+0x3f>
   11a53:	89 c7                	mov    %eax,%edi
   11a55:	8b 75 f0             	mov    -0x10(%ebp),%esi
   11a58:	d1 ff                	sar    %edi
   11a5a:	74 2f                	je     11a8b <itoahex+0x9b>
   11a5c:	89 5d 0c             	mov    %ebx,0xc(%ebp)
   11a5f:	89 f2                	mov    %esi,%edx
   11a61:	01 f7                	add    %esi,%edi
   11a63:	8d 4c 0b 02          	lea    0x2(%ebx,%ecx,1),%ecx
   11a67:	89 c6                	mov    %eax,%esi
   11a69:	8d b4 26 00 00 00 00 	lea    0x0(%esi,%eiz,1),%esi
   11a70:	0f b6 19             	movzbl (%ecx),%ebx
   11a73:	0f b6 02             	movzbl (%edx),%eax
   11a76:	83 c2 01             	add    $0x1,%edx
   11a79:	83 e9 01             	sub    $0x1,%ecx
   11a7c:	88 5a ff             	mov    %bl,-0x1(%edx)
   11a7f:	88 41 01             	mov    %al,0x1(%ecx)
   11a82:	39 fa                	cmp    %edi,%edx
   11a84:	75 ea                	jne    11a70 <itoahex+0x80>
   11a86:	8b 5d 0c             	mov    0xc(%ebp),%ebx
   11a89:	89 f0                	mov    %esi,%eax
   11a8b:	c6 44 03 02 00       	movb   $0x0,0x2(%ebx,%eax,1)
   11a90:	83 c4 04             	add    $0x4,%esp
   11a93:	89 d8                	mov    %ebx,%eax
   11a95:	5b                   	pop    %ebx
   11a96:	5e                   	pop    %esi
   11a97:	5f                   	pop    %edi
   11a98:	5d                   	pop    %ebp
   11a99:	c3                   	ret
   11a9a:	8d b6 00 00 00 00    	lea    0x0(%esi),%esi
   11aa0:	0f b7 05 e2 4e 01 00 	movzwl 0x14ee2,%eax
   11aa7:	66 89 43 02          	mov    %ax,0x2(%ebx)
   11aab:	83 c4 04             	add    $0x4,%esp
   11aae:	89 d8                	mov    %ebx,%eax
   11ab0:	5b                   	pop    %ebx
   11ab1:	5e                   	pop    %esi
   11ab2:	5f                   	pop    %edi
   11ab3:	5d                   	pop    %ebp
   11ab4:	c3                   	ret
   11ab5:	66 90                	xchg   %ax,%ax
   11ab7:	66 90                	xchg   %ax,%ax
   11ab9:	66 90                	xchg   %ax,%ax
   11abb:	66 90                	xchg   %ax,%ax
   11abd:	66 90                	xchg   %ax,%ax
   11abf:	90                   	nop

00011ac0 <get_eflags>:
   11ac0:	9c                   	pushf
   11ac1:	58                   	pop    %eax
   11ac2:	c3                   	ret
   11ac3:	8d b4 26 00 00 00 00 	lea    0x0(%esi,%eiz,1),%esi
   11aca:	8d b6 00 00 00 00    	lea    0x0(%esi),%esi

00011ad0 <set_eflags>:
   11ad0:	6a 00                	push   $0x0
   11ad2:	9d                   	popf
   11ad3:	c3                   	ret
   11ad4:	8d b4 26 00 00 00 00 	lea    0x0(%esi,%eiz,1),%esi
   11adb:	8d 74 26 00          	lea    0x0(%esi,%eiz,1),%esi
   11adf:	90                   	nop

00011ae0 <set_idt_reg>:
   11ae0:	55                   	push   %ebp
   11ae1:	89 e5                	mov    %esp,%ebp
   11ae3:	8b 45 08             	mov    0x8(%ebp),%eax
   11ae6:	0f 01 18             	lidtl  (%eax)
   11ae9:	5d                   	pop    %ebp
   11aea:	c3                   	ret
   11aeb:	8d 74 26 00          	lea    0x0(%esi,%eiz,1),%esi
   11aef:	90                   	nop

00011af0 <set_gdt_reg>:
   11af0:	55                   	push   %ebp
   11af1:	89 e5                	mov    %esp,%ebp
   11af3:	8b 45 08             	mov    0x8(%ebp),%eax
   11af6:	0f 01 10             	lgdtl  (%eax)
   11af9:	5d                   	pop    %ebp
   11afa:	c3                   	ret
   11afb:	8d 74 26 00          	lea    0x0(%esi,%eiz,1),%esi
   11aff:	90                   	nop

00011b00 <set_ldt_reg>:
   11b00:	55                   	push   %ebp
   11b01:	89 e5                	mov    %esp,%ebp
   11b03:	0f b7 45 08          	movzwl 0x8(%ebp),%eax
   11b07:	0f 00 d0             	lldt   %ax
   11b0a:	5d                   	pop    %ebp
   11b0b:	c3                   	ret
   11b0c:	8d 74 26 00          	lea    0x0(%esi,%eiz,1),%esi

00011b10 <set_task_reg>:
   11b10:	55                   	push   %ebp
   11b11:	89 e5                	mov    %esp,%ebp
   11b13:	0f b7 45 08          	movzwl 0x8(%ebp),%eax
   11b17:	0f 00 d8             	ltr    %ax
   11b1a:	5d                   	pop    %ebp
   11b1b:	c3                   	ret
   11b1c:	8d 74 26 00          	lea    0x0(%esi,%eiz,1),%esi

00011b20 <return_gate>:
   11b20:	55                   	push   %ebp
   11b21:	89 e5                	mov    %esp,%ebp
   11b23:	83 ec 0c             	sub    $0xc,%esp
   11b26:	8b 45 08             	mov    0x8(%ebp),%eax
   11b29:	66 89 45 fc          	mov    %ax,-0x4(%ebp)
   11b2d:	8b 45 0c             	mov    0xc(%ebp),%eax
   11b30:	66 89 45 f8          	mov    %ax,-0x8(%ebp)
   11b34:	8b 45 14             	mov    0x14(%ebp),%eax
   11b37:	66 89 45 f4          	mov    %ax,-0xc(%ebp)
   11b3b:	a1 20 4f 01 00       	mov    0x14f20,%eax
   11b40:	8b 10                	mov    (%eax),%edx
   11b42:	8e 45 fc             	mov    -0x4(%ebp),%es
   11b45:	8e 5d fc             	mov    -0x4(%ebp),%ds
   11b48:	8b 45 10             	mov    0x10(%ebp),%eax
   11b4b:	83 c0 0c             	add    $0xc,%eax
   11b4e:	89 10                	mov    %edx,(%eax)
   11b50:	ff 75 f8             	push   -0x8(%ebp)
   11b53:	ff 75 10             	push   0x10(%ebp)
   11b56:	ff 75 f4             	push   -0xc(%ebp)
   11b59:	ff 75 18             	push   0x18(%ebp)
   11b5c:	cb                   	lret
   11b5d:	c9                   	leave
   11b5e:	c3                   	ret
   11b5f:	90                   	nop

00011b60 <enable_int>:
   11b60:	b0 f8                	mov    $0xf8,%al
   11b62:	e6 21                	out    %al,$0x21
   11b64:	e8 17 00 00 00       	call   11b80 <delay>
   11b69:	b0 ff                	mov    $0xff,%al
   11b6b:	e6 a1                	out    %al,$0xa1
   11b6d:	e8 0e 00 00 00       	call   11b80 <delay>
   11b72:	fb                   	sti
   11b73:	c3                   	ret
   11b74:	8d b4 26 00 00 00 00 	lea    0x0(%esi,%eiz,1),%esi
   11b7b:	8d 74 26 00          	lea    0x0(%esi,%eiz,1),%esi
   11b7f:	90                   	nop

00011b80 <delay>:
   11b80:	eb 00                	jmp    11b82 <a>

00011b82 <a>:
   11b82:	c3                   	ret
   11b83:	66 90                	xchg   %ax,%ax
   11b85:	66 90                	xchg   %ax,%ax
   11b87:	66 90                	xchg   %ax,%ax
   11b89:	66 90                	xchg   %ax,%ax
   11b8b:	66 90                	xchg   %ax,%ax
   11b8d:	66 90                	xchg   %ax,%ax
   11b8f:	90                   	nop

00011b90 <INIT_LIST_HEAD>:
   11b90:	55                   	push   %ebp
   11b91:	89 e5                	mov    %esp,%ebp
   11b93:	8b 45 08             	mov    0x8(%ebp),%eax
   11b96:	66 0f 6e c0          	movd   %eax,%xmm0
   11b9a:	66 0f 62 c0          	punpckldq %xmm0,%xmm0
   11b9e:	66 0f d6 00          	movq   %xmm0,(%eax)
   11ba2:	5d                   	pop    %ebp
   11ba3:	c3                   	ret
   11ba4:	8d b4 26 00 00 00 00 	lea    0x0(%esi,%eiz,1),%esi
   11bab:	8d 74 26 00          	lea    0x0(%esi,%eiz,1),%esi
   11baf:	90                   	nop

00011bb0 <list_add>:
   11bb0:	55                   	push   %ebp
   11bb1:	89 e5                	mov    %esp,%ebp
   11bb3:	8b 55 0c             	mov    0xc(%ebp),%edx
   11bb6:	8b 4d 08             	mov    0x8(%ebp),%ecx
   11bb9:	8b 02                	mov    (%edx),%eax
   11bbb:	66 0f 6e ca          	movd   %edx,%xmm1
   11bbf:	66 0f 6e c0          	movd   %eax,%xmm0
   11bc3:	89 48 04             	mov    %ecx,0x4(%eax)
   11bc6:	66 0f 62 c1          	punpckldq %xmm1,%xmm0
   11bca:	66 0f d6 01          	movq   %xmm0,(%ecx)
   11bce:	89 0a                	mov    %ecx,(%edx)
   11bd0:	5d                   	pop    %ebp
   11bd1:	c3                   	ret
   11bd2:	8d b4 26 00 00 00 00 	lea    0x0(%esi,%eiz,1),%esi
   11bd9:	8d b4 26 00 00 00 00 	lea    0x0(%esi,%eiz,1),%esi

00011be0 <list_add_tail>:
   11be0:	55                   	push   %ebp
   11be1:	89 e5                	mov    %esp,%ebp
   11be3:	8b 45 0c             	mov    0xc(%ebp),%eax
   11be6:	8b 55 08             	mov    0x8(%ebp),%edx
   11be9:	8b 48 04             	mov    0x4(%eax),%ecx
   11bec:	66 0f 6e c0          	movd   %eax,%xmm0
   11bf0:	89 50 04             	mov    %edx,0x4(%eax)
   11bf3:	66 0f 6e c9          	movd   %ecx,%xmm1
   11bf7:	66 0f 62 c1          	punpckldq %xmm1,%xmm0
   11bfb:	66 0f d6 02          	movq   %xmm0,(%edx)
   11bff:	89 11                	mov    %edx,(%ecx)
   11c01:	5d                   	pop    %ebp
   11c02:	c3                   	ret
   11c03:	8d b4 26 00 00 00 00 	lea    0x0(%esi,%eiz,1),%esi
   11c0a:	8d b6 00 00 00 00    	lea    0x0(%esi),%esi

00011c10 <list_del>:
   11c10:	55                   	push   %ebp
   11c11:	89 e5                	mov    %esp,%ebp
   11c13:	8b 45 08             	mov    0x8(%ebp),%eax
   11c16:	8b 08                	mov    (%eax),%ecx
   11c18:	8b 50 04             	mov    0x4(%eax),%edx
   11c1b:	89 51 04             	mov    %edx,0x4(%ecx)
   11c1e:	89 0a                	mov    %ecx,(%edx)
   11c20:	c7 00 00 00 00 00    	movl   $0x0,(%eax)
   11c26:	c7 40 04 00 00 00 00 	movl   $0x0,0x4(%eax)
   11c2d:	5d                   	pop    %ebp
   11c2e:	c3                   	ret
   11c2f:	90                   	nop

00011c30 <list_is_last>:
   11c30:	55                   	push   %ebp
   11c31:	89 e5                	mov    %esp,%ebp
   11c33:	8b 45 08             	mov    0x8(%ebp),%eax
   11c36:	8b 55 0c             	mov    0xc(%ebp),%edx
   11c39:	5d                   	pop    %ebp
   11c3a:	39 10                	cmp    %edx,(%eax)
   11c3c:	0f 94 c0             	sete   %al
   11c3f:	0f b6 c0             	movzbl %al,%eax
   11c42:	c3                   	ret
   11c43:	8d b4 26 00 00 00 00 	lea    0x0(%esi,%eiz,1),%esi
   11c4a:	8d b6 00 00 00 00    	lea    0x0(%esi),%esi

00011c50 <list_empty>:
   11c50:	55                   	push   %ebp
   11c51:	89 e5                	mov    %esp,%ebp
   11c53:	8b 45 08             	mov    0x8(%ebp),%eax
   11c56:	5d                   	pop    %ebp
   11c57:	39 00                	cmp    %eax,(%eax)
   11c59:	0f 94 c0             	sete   %al
   11c5c:	0f b6 c0             	movzbl %al,%eax
   11c5f:	c3                   	ret

00011c60 <initialize_sem>:
   11c60:	b8 00 5d 01 00       	mov    $0x15d00,%eax
   11c65:	8d 76 00             	lea    0x0(%esi),%esi
   11c68:	c7 40 10 ad de 00 00 	movl   $0xdead,0x10(%eax)
   11c6f:	83 c0 30             	add    $0x30,%eax
   11c72:	c7 40 e4 00 00 00 00 	movl   $0x0,-0x1c(%eax)
   11c79:	c7 40 f8 ad de 00 00 	movl   $0xdead,-0x8(%eax)
   11c80:	c7 40 fc 00 00 00 00 	movl   $0x0,-0x4(%eax)
   11c87:	c7 40 d0 ad de 00 00 	movl   $0xdead,-0x30(%eax)
   11c8e:	c7 40 d4 ad de 00 00 	movl   $0xdead,-0x2c(%eax)
   11c95:	c7 40 e8 ad de 00 00 	movl   $0xdead,-0x18(%eax)
   11c9c:	c7 40 ec ad de 00 00 	movl   $0xdead,-0x14(%eax)
   11ca3:	3d e0 5e 01 00       	cmp    $0x15ee0,%eax
   11ca8:	75 be                	jne    11c68 <initialize_sem+0x8>
   11caa:	c3                   	ret
   11cab:	8d 74 26 00          	lea    0x0(%esi,%eiz,1),%esi
   11caf:	90                   	nop

00011cb0 <get_semafor>:
   11cb0:	55                   	push   %ebp
   11cb1:	ba 00 5d 01 00       	mov    $0x15d00,%edx
   11cb6:	31 c0                	xor    %eax,%eax
   11cb8:	89 e5                	mov    %esp,%ebp
   11cba:	8b 4d 08             	mov    0x8(%ebp),%ecx
   11cbd:	eb 0c                	jmp    11ccb <get_semafor+0x1b>
   11cbf:	90                   	nop
   11cc0:	83 c0 01             	add    $0x1,%eax
   11cc3:	83 c2 18             	add    $0x18,%edx
   11cc6:	83 f8 14             	cmp    $0x14,%eax
   11cc9:	74 15                	je     11ce0 <get_semafor+0x30>
   11ccb:	39 0a                	cmp    %ecx,(%edx)
   11ccd:	75 f1                	jne    11cc0 <get_semafor+0x10>
   11ccf:	8d 04 40             	lea    (%eax,%eax,2),%eax
   11cd2:	5d                   	pop    %ebp
   11cd3:	8d 04 c5 00 5d 01 00 	lea    0x15d00(,%eax,8),%eax
   11cda:	c3                   	ret
   11cdb:	8d 74 26 00          	lea    0x0(%esi,%eiz,1),%esi
   11cdf:	90                   	nop
   11ce0:	31 c0                	xor    %eax,%eax
   11ce2:	5d                   	pop    %ebp
   11ce3:	c3                   	ret
   11ce4:	8d b4 26 00 00 00 00 	lea    0x0(%esi,%eiz,1),%esi
   11ceb:	8d 74 26 00          	lea    0x0(%esi,%eiz,1),%esi
   11cef:	90                   	nop

00011cf0 <get_free_semafor>:
   11cf0:	ba 14 5d 01 00       	mov    $0x15d14,%edx
   11cf5:	31 c0                	xor    %eax,%eax
   11cf7:	eb 12                	jmp    11d0b <get_free_semafor+0x1b>
   11cf9:	8d b4 26 00 00 00 00 	lea    0x0(%esi,%eiz,1),%esi
   11d00:	83 c0 01             	add    $0x1,%eax
   11d03:	83 c2 18             	add    $0x18,%edx
   11d06:	83 f8 14             	cmp    $0x14,%eax
   11d09:	74 15                	je     11d20 <get_free_semafor+0x30>
   11d0b:	8b 0a                	mov    (%edx),%ecx
   11d0d:	85 c9                	test   %ecx,%ecx
   11d0f:	75 ef                	jne    11d00 <get_free_semafor+0x10>
   11d11:	8d 04 40             	lea    (%eax,%eax,2),%eax
   11d14:	8d 04 c5 00 5d 01 00 	lea    0x15d00(,%eax,8),%eax
   11d1b:	c3                   	ret
   11d1c:	8d 74 26 00          	lea    0x0(%esi,%eiz,1),%esi
   11d20:	31 c0                	xor    %eax,%eax
   11d22:	c3                   	ret
   11d23:	8d b4 26 00 00 00 00 	lea    0x0(%esi,%eiz,1),%esi
   11d2a:	8d b6 00 00 00 00    	lea    0x0(%esi),%esi

00011d30 <sem_init>:
   11d30:	55                   	push   %ebp
   11d31:	b8 00 5d 01 00       	mov    $0x15d00,%eax
   11d36:	31 d2                	xor    %edx,%edx
   11d38:	89 e5                	mov    %esp,%ebp
   11d3a:	57                   	push   %edi
   11d3b:	56                   	push   %esi
   11d3c:	53                   	push   %ebx
   11d3d:	83 ec 1c             	sub    $0x1c,%esp
   11d40:	8b 5d 08             	mov    0x8(%ebp),%ebx
   11d43:	eb 0e                	jmp    11d53 <sem_init+0x23>
   11d45:	8d 76 00             	lea    0x0(%esi),%esi
   11d48:	83 c2 01             	add    $0x1,%edx
   11d4b:	83 c0 18             	add    $0x18,%eax
   11d4e:	83 fa 14             	cmp    $0x14,%edx
   11d51:	74 1d                	je     11d70 <sem_init+0x40>
   11d53:	39 18                	cmp    %ebx,(%eax)
   11d55:	75 f1                	jne    11d48 <sem_init+0x18>
   11d57:	8d 65 f4             	lea    -0xc(%ebp),%esp
   11d5a:	ba ea ff ff ff       	mov    $0xffffffea,%edx
   11d5f:	5b                   	pop    %ebx
   11d60:	89 d0                	mov    %edx,%eax
   11d62:	5e                   	pop    %esi
   11d63:	5f                   	pop    %edi
   11d64:	5d                   	pop    %ebp
   11d65:	c3                   	ret
   11d66:	8d b4 26 00 00 00 00 	lea    0x0(%esi,%eiz,1),%esi
   11d6d:	8d 76 00             	lea    0x0(%esi),%esi
   11d70:	ba 14 5d 01 00       	mov    $0x15d14,%edx
   11d75:	31 c0                	xor    %eax,%eax
   11d77:	eb 12                	jmp    11d8b <sem_init+0x5b>
   11d79:	8d b4 26 00 00 00 00 	lea    0x0(%esi,%eiz,1),%esi
   11d80:	83 c0 01             	add    $0x1,%eax
   11d83:	83 c2 18             	add    $0x18,%edx
   11d86:	83 f8 14             	cmp    $0x14,%eax
   11d89:	74 65                	je     11df0 <sem_init+0xc0>
   11d8b:	8b 0a                	mov    (%edx),%ecx
   11d8d:	85 c9                	test   %ecx,%ecx
   11d8f:	75 ef                	jne    11d80 <sem_init+0x50>
   11d91:	8d 3c 40             	lea    (%eax,%eax,2),%edi
   11d94:	c1 e7 03             	shl    $0x3,%edi
   11d97:	8b 97 14 5d 01 00    	mov    0x15d14(%edi),%edx
   11d9d:	85 d2                	test   %edx,%edx
   11d9f:	89 55 e4             	mov    %edx,-0x1c(%ebp)
   11da2:	75 b3                	jne    11d57 <sem_init+0x27>
   11da4:	8b 45 0c             	mov    0xc(%ebp),%eax
   11da7:	8d b7 08 5d 01 00    	lea    0x15d08(%edi),%esi
   11dad:	c7 87 14 5d 01 00 01 	movl   $0x1,0x15d14(%edi)
   11db4:	00 00 00 
   11db7:	89 87 04 5d 01 00    	mov    %eax,0x15d04(%edi)
   11dbd:	e8 ee ea ff ff       	call   108b0 <current>
   11dc2:	83 ec 0c             	sub    $0xc,%esp
   11dc5:	8b 00                	mov    (%eax),%eax
   11dc7:	89 9f 00 5d 01 00    	mov    %ebx,0x15d00(%edi)
   11dcd:	89 87 10 5d 01 00    	mov    %eax,0x15d10(%edi)
   11dd3:	56                   	push   %esi
   11dd4:	e8 b7 fd ff ff       	call   11b90 <INIT_LIST_HEAD>
   11dd9:	8b 55 e4             	mov    -0x1c(%ebp),%edx
   11ddc:	83 c4 10             	add    $0x10,%esp
   11ddf:	8d 65 f4             	lea    -0xc(%ebp),%esp
   11de2:	5b                   	pop    %ebx
   11de3:	5e                   	pop    %esi
   11de4:	89 d0                	mov    %edx,%eax
   11de6:	5f                   	pop    %edi
   11de7:	5d                   	pop    %ebp
   11de8:	c3                   	ret
   11de9:	8d b4 26 00 00 00 00 	lea    0x0(%esi,%eiz,1),%esi
   11df0:	8d 65 f4             	lea    -0xc(%ebp),%esp
   11df3:	ba fe ff ff ff       	mov    $0xfffffffe,%edx
   11df8:	5b                   	pop    %ebx
   11df9:	89 d0                	mov    %edx,%eax
   11dfb:	5e                   	pop    %esi
   11dfc:	5f                   	pop    %edi
   11dfd:	5d                   	pop    %ebp
   11dfe:	c3                   	ret
   11dff:	90                   	nop

00011e00 <sem_wait>:
   11e00:	55                   	push   %ebp
   11e01:	ba 00 5d 01 00       	mov    $0x15d00,%edx
   11e06:	31 c0                	xor    %eax,%eax
   11e08:	89 e5                	mov    %esp,%ebp
   11e0a:	53                   	push   %ebx
   11e0b:	83 ec 04             	sub    $0x4,%esp
   11e0e:	8b 4d 08             	mov    0x8(%ebp),%ecx
   11e11:	eb 10                	jmp    11e23 <sem_wait+0x23>
   11e13:	8d 74 26 00          	lea    0x0(%esi,%eiz,1),%esi
   11e17:	90                   	nop
   11e18:	83 c0 01             	add    $0x1,%eax
   11e1b:	83 c2 18             	add    $0x18,%edx
   11e1e:	83 f8 14             	cmp    $0x14,%eax
   11e21:	74 4d                	je     11e70 <sem_wait+0x70>
   11e23:	39 0a                	cmp    %ecx,(%edx)
   11e25:	75 f1                	jne    11e18 <sem_wait+0x18>
   11e27:	8d 04 40             	lea    (%eax,%eax,2),%eax
   11e2a:	8d 1c c5 00 5d 01 00 	lea    0x15d00(,%eax,8),%ebx
   11e31:	8b 43 14             	mov    0x14(%ebx),%eax
   11e34:	85 c0                	test   %eax,%eax
   11e36:	7e 38                	jle    11e70 <sem_wait+0x70>
   11e38:	8b 43 04             	mov    0x4(%ebx),%eax
   11e3b:	85 c0                	test   %eax,%eax
   11e3d:	75 3b                	jne    11e7a <sem_wait+0x7a>
   11e3f:	e8 6c ea ff ff       	call   108b0 <current>
   11e44:	83 ec 08             	sub    $0x8,%esp
   11e47:	8d 53 08             	lea    0x8(%ebx),%edx
   11e4a:	52                   	push   %edx
   11e4b:	50                   	push   %eax
   11e4c:	e8 cf ec ff ff       	call   10b20 <update_process_state_rr>
   11e51:	e8 1a ed ff ff       	call   10b70 <sched_next_rr>
   11e56:	8b 43 14             	mov    0x14(%ebx),%eax
   11e59:	83 c4 10             	add    $0x10,%esp
   11e5c:	85 c0                	test   %eax,%eax
   11e5e:	78 27                	js     11e87 <sem_wait+0x87>
   11e60:	31 c0                	xor    %eax,%eax
   11e62:	8b 5d fc             	mov    -0x4(%ebp),%ebx
   11e65:	c9                   	leave
   11e66:	c3                   	ret
   11e67:	8d b4 26 00 00 00 00 	lea    0x0(%esi,%eiz,1),%esi
   11e6e:	66 90                	xchg   %ax,%ax
   11e70:	8b 5d fc             	mov    -0x4(%ebp),%ebx
   11e73:	b8 ea ff ff ff       	mov    $0xffffffea,%eax
   11e78:	c9                   	leave
   11e79:	c3                   	ret
   11e7a:	83 e8 01             	sub    $0x1,%eax
   11e7d:	89 43 04             	mov    %eax,0x4(%ebx)
   11e80:	b8 ff ff ff ff       	mov    $0xffffffff,%eax
   11e85:	eb db                	jmp    11e62 <sem_wait+0x62>
   11e87:	83 c0 01             	add    $0x1,%eax
   11e8a:	89 43 14             	mov    %eax,0x14(%ebx)
   11e8d:	b8 fe ff ff ff       	mov    $0xfffffffe,%eax
   11e92:	eb ce                	jmp    11e62 <sem_wait+0x62>
   11e94:	8d b4 26 00 00 00 00 	lea    0x0(%esi,%eiz,1),%esi
   11e9b:	8d 74 26 00          	lea    0x0(%esi,%eiz,1),%esi
   11e9f:	90                   	nop

00011ea0 <sem_signal>:
   11ea0:	55                   	push   %ebp
   11ea1:	ba 00 5d 01 00       	mov    $0x15d00,%edx
   11ea6:	31 c0                	xor    %eax,%eax
   11ea8:	89 e5                	mov    %esp,%ebp
   11eaa:	53                   	push   %ebx
   11eab:	83 ec 04             	sub    $0x4,%esp
   11eae:	8b 4d 08             	mov    0x8(%ebp),%ecx
   11eb1:	eb 10                	jmp    11ec3 <sem_signal+0x23>
   11eb3:	8d 74 26 00          	lea    0x0(%esi,%eiz,1),%esi
   11eb7:	90                   	nop
   11eb8:	83 c0 01             	add    $0x1,%eax
   11ebb:	83 c2 18             	add    $0x18,%edx
   11ebe:	83 f8 14             	cmp    $0x14,%eax
   11ec1:	74 3d                	je     11f00 <sem_signal+0x60>
   11ec3:	39 0a                	cmp    %ecx,(%edx)
   11ec5:	75 f1                	jne    11eb8 <sem_signal+0x18>
   11ec7:	8d 04 40             	lea    (%eax,%eax,2),%eax
   11eca:	8d 1c c5 00 5d 01 00 	lea    0x15d00(,%eax,8),%ebx
   11ed1:	8b 4b 14             	mov    0x14(%ebx),%ecx
   11ed4:	85 c9                	test   %ecx,%ecx
   11ed6:	7e 28                	jle    11f00 <sem_signal+0x60>
   11ed8:	83 ec 0c             	sub    $0xc,%esp
   11edb:	8d 43 08             	lea    0x8(%ebx),%eax
   11ede:	50                   	push   %eax
   11edf:	e8 6c fd ff ff       	call   11c50 <list_empty>
   11ee4:	83 c4 10             	add    $0x10,%esp
   11ee7:	85 c0                	test   %eax,%eax
   11ee9:	74 25                	je     11f10 <sem_signal+0x70>
   11eeb:	83 43 04 01          	addl   $0x1,0x4(%ebx)
   11eef:	8b 5d fc             	mov    -0x4(%ebp),%ebx
   11ef2:	31 c0                	xor    %eax,%eax
   11ef4:	c9                   	leave
   11ef5:	c3                   	ret
   11ef6:	8d b4 26 00 00 00 00 	lea    0x0(%esi,%eiz,1),%esi
   11efd:	8d 76 00             	lea    0x0(%esi),%esi
   11f00:	8b 5d fc             	mov    -0x4(%ebp),%ebx
   11f03:	b8 ea ff ff ff       	mov    $0xffffffea,%eax
   11f08:	c9                   	leave
   11f09:	c3                   	ret
   11f0a:	8d b6 00 00 00 00    	lea    0x0(%esi),%esi
   11f10:	8b 5b 08             	mov    0x8(%ebx),%ebx
   11f13:	83 ec 0c             	sub    $0xc,%esp
   11f16:	53                   	push   %ebx
   11f17:	e8 f4 fc ff ff       	call   11c10 <list_del>
   11f1c:	58                   	pop    %eax
   11f1d:	5a                   	pop    %edx
   11f1e:	68 50 58 01 00       	push   $0x15850
   11f23:	53                   	push   %ebx
   11f24:	e8 b7 fc ff ff       	call   11be0 <list_add_tail>
   11f29:	83 c4 10             	add    $0x10,%esp
   11f2c:	eb c1                	jmp    11eef <sem_signal+0x4f>
   11f2e:	66 90                	xchg   %ax,%ax

00011f30 <internal_sem_destroy>:
   11f30:	55                   	push   %ebp
   11f31:	89 e5                	mov    %esp,%ebp
   11f33:	57                   	push   %edi
   11f34:	56                   	push   %esi
   11f35:	53                   	push   %ebx
   11f36:	83 ec 1c             	sub    $0x1c,%esp
   11f39:	8b 75 08             	mov    0x8(%ebp),%esi
   11f3c:	8b 4e 14             	mov    0x14(%esi),%ecx
   11f3f:	85 c9                	test   %ecx,%ecx
   11f41:	7e 5d                	jle    11fa0 <internal_sem_destroy+0x70>
   11f43:	8b 5e 10             	mov    0x10(%esi),%ebx
   11f46:	e8 65 e9 ff ff       	call   108b0 <current>
   11f4b:	3b 18                	cmp    (%eax),%ebx
   11f4d:	75 51                	jne    11fa0 <internal_sem_destroy+0x70>
   11f4f:	8b 5e 08             	mov    0x8(%esi),%ebx
   11f52:	8d 46 08             	lea    0x8(%esi),%eax
   11f55:	c7 46 14 00 00 00 00 	movl   $0x0,0x14(%esi)
   11f5c:	c7 06 ad de 00 00    	movl   $0xdead,(%esi)
   11f62:	89 45 e4             	mov    %eax,-0x1c(%ebp)
   11f65:	8b 3b                	mov    (%ebx),%edi
   11f67:	39 c3                	cmp    %eax,%ebx
   11f69:	74 2b                	je     11f96 <internal_sem_destroy+0x66>
   11f6b:	8d 74 26 00          	lea    0x0(%esi,%eiz,1),%esi
   11f6f:	90                   	nop
   11f70:	83 ec 0c             	sub    $0xc,%esp
   11f73:	53                   	push   %ebx
   11f74:	e8 97 fc ff ff       	call   11c10 <list_del>
   11f79:	83 6e 14 01          	subl   $0x1,0x14(%esi)
   11f7d:	58                   	pop    %eax
   11f7e:	5a                   	pop    %edx
   11f7f:	68 50 58 01 00       	push   $0x15850
   11f84:	53                   	push   %ebx
   11f85:	89 fb                	mov    %edi,%ebx
   11f87:	e8 54 fc ff ff       	call   11be0 <list_add_tail>
   11f8c:	8b 3f                	mov    (%edi),%edi
   11f8e:	83 c4 10             	add    $0x10,%esp
   11f91:	39 5d e4             	cmp    %ebx,-0x1c(%ebp)
   11f94:	75 da                	jne    11f70 <internal_sem_destroy+0x40>
   11f96:	31 c0                	xor    %eax,%eax
   11f98:	8d 65 f4             	lea    -0xc(%ebp),%esp
   11f9b:	5b                   	pop    %ebx
   11f9c:	5e                   	pop    %esi
   11f9d:	5f                   	pop    %edi
   11f9e:	5d                   	pop    %ebp
   11f9f:	c3                   	ret
   11fa0:	b8 ea ff ff ff       	mov    $0xffffffea,%eax
   11fa5:	eb f1                	jmp    11f98 <internal_sem_destroy+0x68>
   11fa7:	8d b4 26 00 00 00 00 	lea    0x0(%esi,%eiz,1),%esi
   11fae:	66 90                	xchg   %ax,%ax

00011fb0 <sem_destroy>:
   11fb0:	55                   	push   %ebp
   11fb1:	ba 00 5d 01 00       	mov    $0x15d00,%edx
   11fb6:	31 c0                	xor    %eax,%eax
   11fb8:	89 e5                	mov    %esp,%ebp
   11fba:	8b 4d 08             	mov    0x8(%ebp),%ecx
   11fbd:	eb 0c                	jmp    11fcb <sem_destroy+0x1b>
   11fbf:	90                   	nop
   11fc0:	83 c0 01             	add    $0x1,%eax
   11fc3:	83 c2 18             	add    $0x18,%edx
   11fc6:	83 f8 14             	cmp    $0x14,%eax
   11fc9:	74 1d                	je     11fe8 <sem_destroy+0x38>
   11fcb:	39 0a                	cmp    %ecx,(%edx)
   11fcd:	75 f1                	jne    11fc0 <sem_destroy+0x10>
   11fcf:	8d 04 40             	lea    (%eax,%eax,2),%eax
   11fd2:	8d 04 c5 00 5d 01 00 	lea    0x15d00(,%eax,8),%eax
   11fd9:	89 45 08             	mov    %eax,0x8(%ebp)
   11fdc:	5d                   	pop    %ebp
   11fdd:	e9 4e ff ff ff       	jmp    11f30 <internal_sem_destroy>
   11fe2:	8d b6 00 00 00 00    	lea    0x0(%esi),%esi
   11fe8:	b8 ea ff ff ff       	mov    $0xffffffea,%eax
   11fed:	5d                   	pop    %ebp
   11fee:	c3                   	ret
   11fef:	90                   	nop

00011ff0 <destroy_owned_sems>:
   11ff0:	55                   	push   %ebp
   11ff1:	89 e5                	mov    %esp,%ebp
   11ff3:	56                   	push   %esi
   11ff4:	53                   	push   %ebx
   11ff5:	bb 00 5d 01 00       	mov    $0x15d00,%ebx
   11ffa:	8b 75 08             	mov    0x8(%ebp),%esi
   11ffd:	eb 0c                	jmp    1200b <destroy_owned_sems+0x1b>
   11fff:	90                   	nop
   12000:	83 c3 18             	add    $0x18,%ebx
   12003:	81 fb e0 5e 01 00    	cmp    $0x15ee0,%ebx
   12009:	74 23                	je     1202e <destroy_owned_sems+0x3e>
   1200b:	8b 43 14             	mov    0x14(%ebx),%eax
   1200e:	85 c0                	test   %eax,%eax
   12010:	7e ee                	jle    12000 <destroy_owned_sems+0x10>
   12012:	39 73 10             	cmp    %esi,0x10(%ebx)
   12015:	75 e9                	jne    12000 <destroy_owned_sems+0x10>
   12017:	83 ec 0c             	sub    $0xc,%esp
   1201a:	53                   	push   %ebx
   1201b:	83 c3 18             	add    $0x18,%ebx
   1201e:	e8 0d ff ff ff       	call   11f30 <internal_sem_destroy>
   12023:	83 c4 10             	add    $0x10,%esp
   12026:	81 fb e0 5e 01 00    	cmp    $0x15ee0,%ebx
   1202c:	75 dd                	jne    1200b <destroy_owned_sems+0x1b>
   1202e:	8d 65 f8             	lea    -0x8(%ebp),%esp
   12031:	5b                   	pop    %ebx
   12032:	5e                   	pop    %esi
   12033:	5d                   	pop    %ebp
   12034:	c3                   	ret

00012035 <idewait>:
   12035:	f3 0f 1e fb          	endbr32
   12039:	55                   	push   %ebp
   1203a:	89 e5                	mov    %esp,%ebp
   1203c:	83 ec 18             	sub    $0x18,%esp
   1203f:	eb 12                	jmp    12053 <idewait+0x1e>
   12041:	8b 45 f4             	mov    -0xc(%ebp),%eax
   12044:	0f b6 c0             	movzbl %al,%eax
   12047:	83 ec 0c             	sub    $0xc,%esp
   1204a:	50                   	push   %eax
   1204b:	e8 62 06 00 00       	call   126b2 <decodeStatusRegister>
   12050:	83 c4 10             	add    $0x10,%esp
   12053:	83 ec 0c             	sub    $0xc,%esp
   12056:	68 f6 03 00 00       	push   $0x3f6
   1205b:	e8 40 e4 ff ff       	call   104a0 <inb>
   12060:	83 c4 10             	add    $0x10,%esp
   12063:	0f b6 c0             	movzbl %al,%eax
   12066:	89 45 f4             	mov    %eax,-0xc(%ebp)
   12069:	8b 45 f4             	mov    -0xc(%ebp),%eax
   1206c:	25 c0 00 00 00       	and    $0xc0,%eax
   12071:	83 f8 40             	cmp    $0x40,%eax
   12074:	74 06                	je     1207c <idewait+0x47>
   12076:	83 7d f4 00          	cmpl   $0x0,-0xc(%ebp)
   1207a:	75 c5                	jne    12041 <idewait+0xc>
   1207c:	a1 ec 5e 01 00       	mov    0x15eec,%eax
   12081:	85 c0                	test   %eax,%eax
   12083:	74 10                	je     12095 <idewait+0x60>
   12085:	83 ec 0c             	sub    $0xc,%esp
   12088:	68 39 37 01 00       	push   $0x13739
   1208d:	e8 de e4 ff ff       	call   10570 <printk>
   12092:	83 c4 10             	add    $0x10,%esp
   12095:	8b 45 f4             	mov    -0xc(%ebp),%eax
   12098:	0f b6 c0             	movzbl %al,%eax
   1209b:	83 ec 0c             	sub    $0xc,%esp
   1209e:	50                   	push   %eax
   1209f:	e8 0e 06 00 00       	call   126b2 <decodeStatusRegister>
   120a4:	83 c4 10             	add    $0x10,%esp
   120a7:	83 7d 08 00          	cmpl   $0x0,0x8(%ebp)
   120ab:	74 17                	je     120c4 <idewait+0x8f>
   120ad:	83 7d f4 00          	cmpl   $0x0,-0xc(%ebp)
   120b1:	74 0a                	je     120bd <idewait+0x88>
   120b3:	8b 45 f4             	mov    -0xc(%ebp),%eax
   120b6:	83 e0 21             	and    $0x21,%eax
   120b9:	85 c0                	test   %eax,%eax
   120bb:	74 07                	je     120c4 <idewait+0x8f>
   120bd:	b8 ff ff ff ff       	mov    $0xffffffff,%eax
   120c2:	eb 05                	jmp    120c9 <idewait+0x94>
   120c4:	b8 00 00 00 00       	mov    $0x0,%eax
   120c9:	c9                   	leave
   120ca:	c3                   	ret

000120cb <ide_soft_reset>:
   120cb:	f3 0f 1e fb          	endbr32
   120cf:	55                   	push   %ebp
   120d0:	89 e5                	mov    %esp,%ebp
   120d2:	83 ec 08             	sub    $0x8,%esp
   120d5:	83 ec 08             	sub    $0x8,%esp
   120d8:	6a 04                	push   $0x4
   120da:	68 f6 03 00 00       	push   $0x3f6
   120df:	e8 a7 0c 00 00       	call   12d8b <outb>
   120e4:	83 c4 10             	add    $0x10,%esp
   120e7:	83 ec 08             	sub    $0x8,%esp
   120ea:	6a 00                	push   $0x0
   120ec:	68 f6 03 00 00       	push   $0x3f6
   120f1:	e8 95 0c 00 00       	call   12d8b <outb>
   120f6:	83 c4 10             	add    $0x10,%esp
   120f9:	83 ec 0c             	sub    $0xc,%esp
   120fc:	68 f6 03 00 00       	push   $0x3f6
   12101:	e8 9a e3 ff ff       	call   104a0 <inb>
   12106:	83 c4 10             	add    $0x10,%esp
   12109:	83 ec 0c             	sub    $0xc,%esp
   1210c:	68 f6 03 00 00       	push   $0x3f6
   12111:	e8 8a e3 ff ff       	call   104a0 <inb>
   12116:	83 c4 10             	add    $0x10,%esp
   12119:	83 ec 0c             	sub    $0xc,%esp
   1211c:	68 f6 03 00 00       	push   $0x3f6
   12121:	e8 7a e3 ff ff       	call   104a0 <inb>
   12126:	83 c4 10             	add    $0x10,%esp
   12129:	83 ec 0c             	sub    $0xc,%esp
   1212c:	68 f6 03 00 00       	push   $0x3f6
   12131:	e8 6a e3 ff ff       	call   104a0 <inb>
   12136:	83 c4 10             	add    $0x10,%esp
   12139:	83 ec 0c             	sub    $0xc,%esp
   1213c:	6a 00                	push   $0x0
   1213e:	e8 f2 fe ff ff       	call   12035 <idewait>
   12143:	83 c4 10             	add    $0x10,%esp
   12146:	90                   	nop
   12147:	c9                   	leave
   12148:	c3                   	ret

00012149 <ideinit>:
   12149:	f3 0f 1e fb          	endbr32
   1214d:	55                   	push   %ebp
   1214e:	89 e5                	mov    %esp,%ebp
   12150:	83 ec 18             	sub    $0x18,%esp
   12153:	e8 73 ff ff ff       	call   120cb <ide_soft_reset>
   12158:	83 ec 08             	sub    $0x8,%esp
   1215b:	68 f0 00 00 00       	push   $0xf0
   12160:	68 f6 01 00 00       	push   $0x1f6
   12165:	e8 21 0c 00 00       	call   12d8b <outb>
   1216a:	83 c4 10             	add    $0x10,%esp
   1216d:	c7 45 f4 00 00 00 00 	movl   $0x0,-0xc(%ebp)
   12174:	eb 24                	jmp    1219a <ideinit+0x51>
   12176:	83 ec 0c             	sub    $0xc,%esp
   12179:	68 f7 01 00 00       	push   $0x1f7
   1217e:	e8 1d e3 ff ff       	call   104a0 <inb>
   12183:	83 c4 10             	add    $0x10,%esp
   12186:	84 c0                	test   %al,%al
   12188:	74 0c                	je     12196 <ideinit+0x4d>
   1218a:	c7 05 e4 5e 01 00 01 	movl   $0x1,0x15ee4
   12191:	00 00 00 
   12194:	eb 0d                	jmp    121a3 <ideinit+0x5a>
   12196:	83 45 f4 01          	addl   $0x1,-0xc(%ebp)
   1219a:	81 7d f4 e7 03 00 00 	cmpl   $0x3e7,-0xc(%ebp)
   121a1:	7e d3                	jle    12176 <ideinit+0x2d>
   121a3:	83 ec 08             	sub    $0x8,%esp
   121a6:	68 e0 00 00 00       	push   $0xe0
   121ab:	68 f6 01 00 00       	push   $0x1f6
   121b0:	e8 d6 0b 00 00       	call   12d8b <outb>
   121b5:	83 c4 10             	add    $0x10,%esp
   121b8:	c7 45 f4 00 00 00 00 	movl   $0x0,-0xc(%ebp)
   121bf:	eb 24                	jmp    121e5 <ideinit+0x9c>
   121c1:	83 ec 0c             	sub    $0xc,%esp
   121c4:	68 f7 01 00 00       	push   $0x1f7
   121c9:	e8 d2 e2 ff ff       	call   104a0 <inb>
   121ce:	83 c4 10             	add    $0x10,%esp
   121d1:	84 c0                	test   %al,%al
   121d3:	74 0c                	je     121e1 <ideinit+0x98>
   121d5:	c7 05 e0 5e 01 00 01 	movl   $0x1,0x15ee0
   121dc:	00 00 00 
   121df:	eb 0d                	jmp    121ee <ideinit+0xa5>
   121e1:	83 45 f4 01          	addl   $0x1,-0xc(%ebp)
   121e5:	81 7d f4 e7 03 00 00 	cmpl   $0x3e7,-0xc(%ebp)
   121ec:	7e d3                	jle    121c1 <ideinit+0x78>
   121ee:	83 ec 0c             	sub    $0xc,%esp
   121f1:	68 3b 37 01 00       	push   $0x1373b
   121f6:	e8 75 e3 ff ff       	call   10570 <printk>
   121fb:	83 c4 10             	add    $0x10,%esp
   121fe:	a1 a8 4f 01 00       	mov    0x14fa8,%eax
   12203:	83 ec 0c             	sub    $0xc,%esp
   12206:	50                   	push   %eax
   12207:	e8 64 e3 ff ff       	call   10570 <printk>
   1220c:	83 c4 10             	add    $0x10,%esp
   1220f:	83 ec 0c             	sub    $0xc,%esp
   12212:	68 4b 37 01 00       	push   $0x1374b
   12217:	e8 54 e3 ff ff       	call   10570 <printk>
   1221c:	83 c4 10             	add    $0x10,%esp
   1221f:	a1 e0 5e 01 00       	mov    0x15ee0,%eax
   12224:	85 c0                	test   %eax,%eax
   12226:	75 09                	jne    12231 <ideinit+0xe8>
   12228:	a1 e4 5e 01 00       	mov    0x15ee4,%eax
   1222d:	85 c0                	test   %eax,%eax
   1222f:	74 07                	je     12238 <ideinit+0xef>
   12231:	b8 00 00 00 00       	mov    $0x0,%eax
   12236:	eb 05                	jmp    1223d <ideinit+0xf4>
   12238:	b8 ff ff ff ff       	mov    $0xffffffff,%eax
   1223d:	c9                   	leave
   1223e:	c3                   	ret

0001223f <idesetblock>:
   1223f:	f3 0f 1e fb          	endbr32
   12243:	55                   	push   %ebp
   12244:	89 e5                	mov    %esp,%ebp
   12246:	83 ec 28             	sub    $0x28,%esp
   12249:	8b 55 08             	mov    0x8(%ebp),%edx
   1224c:	8b 45 10             	mov    0x10(%ebp),%eax
   1224f:	88 55 e4             	mov    %dl,-0x1c(%ebp)
   12252:	88 45 e0             	mov    %al,-0x20(%ebp)
   12255:	81 7d 0c ff ff ff 0f 	cmpl   $0xfffffff,0xc(%ebp)
   1225c:	76 0a                	jbe    12268 <idesetblock+0x29>
   1225e:	b8 ff ff ff ff       	mov    $0xffffffff,%eax
   12263:	e9 a7 00 00 00       	jmp    1230f <idesetblock+0xd0>
   12268:	80 7d e0 01          	cmpb   $0x1,-0x20(%ebp)
   1226c:	76 0a                	jbe    12278 <idesetblock+0x39>
   1226e:	b8 ff ff ff ff       	mov    $0xffffffff,%eax
   12273:	e9 97 00 00 00       	jmp    1230f <idesetblock+0xd0>
   12278:	0f b6 45 e4          	movzbl -0x1c(%ebp),%eax
   1227c:	83 ec 08             	sub    $0x8,%esp
   1227f:	50                   	push   %eax
   12280:	68 f2 01 00 00       	push   $0x1f2
   12285:	e8 01 0b 00 00       	call   12d8b <outb>
   1228a:	83 c4 10             	add    $0x10,%esp
   1228d:	8b 45 0c             	mov    0xc(%ebp),%eax
   12290:	0f b6 c0             	movzbl %al,%eax
   12293:	83 ec 08             	sub    $0x8,%esp
   12296:	50                   	push   %eax
   12297:	68 f3 01 00 00       	push   $0x1f3
   1229c:	e8 ea 0a 00 00       	call   12d8b <outb>
   122a1:	83 c4 10             	add    $0x10,%esp
   122a4:	8b 45 0c             	mov    0xc(%ebp),%eax
   122a7:	c1 e8 08             	shr    $0x8,%eax
   122aa:	0f b6 c0             	movzbl %al,%eax
   122ad:	83 ec 08             	sub    $0x8,%esp
   122b0:	50                   	push   %eax
   122b1:	68 f4 01 00 00       	push   $0x1f4
   122b6:	e8 d0 0a 00 00       	call   12d8b <outb>
   122bb:	83 c4 10             	add    $0x10,%esp
   122be:	8b 45 0c             	mov    0xc(%ebp),%eax
   122c1:	c1 e8 10             	shr    $0x10,%eax
   122c4:	0f b6 c0             	movzbl %al,%eax
   122c7:	83 ec 08             	sub    $0x8,%esp
   122ca:	50                   	push   %eax
   122cb:	68 f5 01 00 00       	push   $0x1f5
   122d0:	e8 b6 0a 00 00       	call   12d8b <outb>
   122d5:	83 c4 10             	add    $0x10,%esp
   122d8:	c6 45 f7 0f          	movb   $0xf,-0x9(%ebp)
   122dc:	d0 65 f7             	shlb   -0x9(%ebp)
   122df:	0f b6 45 e0          	movzbl -0x20(%ebp),%eax
   122e3:	08 45 f7             	or     %al,-0x9(%ebp)
   122e6:	c0 65 f7 04          	shlb   $0x4,-0x9(%ebp)
   122ea:	8b 45 0c             	mov    0xc(%ebp),%eax
   122ed:	c1 e8 18             	shr    $0x18,%eax
   122f0:	83 e0 0f             	and    $0xf,%eax
   122f3:	0a 45 f7             	or     -0x9(%ebp),%al
   122f6:	0f b6 c0             	movzbl %al,%eax
   122f9:	83 ec 08             	sub    $0x8,%esp
   122fc:	50                   	push   %eax
   122fd:	68 f6 01 00 00       	push   $0x1f6
   12302:	e8 84 0a 00 00       	call   12d8b <outb>
   12307:	83 c4 10             	add    $0x10,%esp
   1230a:	b8 00 00 00 00       	mov    $0x0,%eax
   1230f:	c9                   	leave
   12310:	c3                   	ret

00012311 <idewrite>:
   12311:	f3 0f 1e fb          	endbr32
   12315:	55                   	push   %ebp
   12316:	89 e5                	mov    %esp,%ebp
   12318:	83 ec 18             	sub    $0x18,%esp
   1231b:	83 7d 08 00          	cmpl   $0x0,0x8(%ebp)
   1231f:	75 0a                	jne    1232b <idewrite+0x1a>
   12321:	b8 ff ff ff ff       	mov    $0xffffffff,%eax
   12326:	e9 71 01 00 00       	jmp    1249c <idewrite+0x18b>
   1232b:	83 ec 0c             	sub    $0xc,%esp
   1232e:	6a 00                	push   $0x0
   12330:	e8 00 fd ff ff       	call   12035 <idewait>
   12335:	83 c4 10             	add    $0x10,%esp
   12338:	a1 ec 5e 01 00       	mov    0x15eec,%eax
   1233d:	85 c0                	test   %eax,%eax
   1233f:	74 10                	je     12351 <idewrite+0x40>
   12341:	83 ec 0c             	sub    $0xc,%esp
   12344:	68 54 37 01 00       	push   $0x13754
   12349:	e8 22 e2 ff ff       	call   10570 <printk>
   1234e:	83 c4 10             	add    $0x10,%esp
   12351:	83 ec 04             	sub    $0x4,%esp
   12354:	6a 00                	push   $0x0
   12356:	ff 75 0c             	push   0xc(%ebp)
   12359:	6a 01                	push   $0x1
   1235b:	e8 df fe ff ff       	call   1223f <idesetblock>
   12360:	83 c4 10             	add    $0x10,%esp
   12363:	83 ec 08             	sub    $0x8,%esp
   12366:	6a 02                	push   $0x2
   12368:	68 f6 03 00 00       	push   $0x3f6
   1236d:	e8 19 0a 00 00       	call   12d8b <outb>
   12372:	83 c4 10             	add    $0x10,%esp
   12375:	83 ec 08             	sub    $0x8,%esp
   12378:	6a 30                	push   $0x30
   1237a:	68 f7 01 00 00       	push   $0x1f7
   1237f:	e8 07 0a 00 00       	call   12d8b <outb>
   12384:	83 c4 10             	add    $0x10,%esp
   12387:	a1 ec 5e 01 00       	mov    0x15eec,%eax
   1238c:	85 c0                	test   %eax,%eax
   1238e:	74 10                	je     123a0 <idewrite+0x8f>
   12390:	83 ec 0c             	sub    $0xc,%esp
   12393:	68 67 37 01 00       	push   $0x13767
   12398:	e8 d3 e1 ff ff       	call   10570 <printk>
   1239d:	83 c4 10             	add    $0x10,%esp
   123a0:	c7 45 f4 00 00 00 00 	movl   $0x0,-0xc(%ebp)
   123a7:	eb 30                	jmp    123d9 <idewrite+0xc8>
   123a9:	8b 45 f0             	mov    -0x10(%ebp),%eax
   123ac:	0f b6 c0             	movzbl %al,%eax
   123af:	83 ec 0c             	sub    $0xc,%esp
   123b2:	50                   	push   %eax
   123b3:	e8 fa 02 00 00       	call   126b2 <decodeStatusRegister>
   123b8:	83 c4 10             	add    $0x10,%esp
   123bb:	83 7d f4 04          	cmpl   $0x4,-0xc(%ebp)
   123bf:	76 14                	jbe    123d5 <idewrite+0xc4>
   123c1:	8b 45 f0             	mov    -0x10(%ebp),%eax
   123c4:	83 e0 01             	and    $0x1,%eax
   123c7:	85 c0                	test   %eax,%eax
   123c9:	74 0a                	je     123d5 <idewrite+0xc4>
   123cb:	b8 ff ff ff ff       	mov    $0xffffffff,%eax
   123d0:	e9 c7 00 00 00       	jmp    1249c <idewrite+0x18b>
   123d5:	83 45 f4 01          	addl   $0x1,-0xc(%ebp)
   123d9:	83 ec 0c             	sub    $0xc,%esp
   123dc:	68 f6 03 00 00       	push   $0x3f6
   123e1:	e8 ba e0 ff ff       	call   104a0 <inb>
   123e6:	83 c4 10             	add    $0x10,%esp
   123e9:	0f b6 c0             	movzbl %al,%eax
   123ec:	89 45 f0             	mov    %eax,-0x10(%ebp)
   123ef:	8b 45 f0             	mov    -0x10(%ebp),%eax
   123f2:	25 88 00 00 00       	and    $0x88,%eax
   123f7:	83 f8 08             	cmp    $0x8,%eax
   123fa:	75 ad                	jne    123a9 <idewrite+0x98>
   123fc:	a1 ec 5e 01 00       	mov    0x15eec,%eax
   12401:	85 c0                	test   %eax,%eax
   12403:	74 10                	je     12415 <idewrite+0x104>
   12405:	83 ec 0c             	sub    $0xc,%esp
   12408:	68 39 37 01 00       	push   $0x13739
   1240d:	e8 5e e1 ff ff       	call   10570 <printk>
   12412:	83 c4 10             	add    $0x10,%esp
   12415:	8b 45 f0             	mov    -0x10(%ebp),%eax
   12418:	0f b6 c0             	movzbl %al,%eax
   1241b:	83 ec 0c             	sub    $0xc,%esp
   1241e:	50                   	push   %eax
   1241f:	e8 8e 02 00 00       	call   126b2 <decodeStatusRegister>
   12424:	83 c4 10             	add    $0x10,%esp
   12427:	a1 ec 5e 01 00       	mov    0x15eec,%eax
   1242c:	85 c0                	test   %eax,%eax
   1242e:	74 10                	je     12440 <idewrite+0x12f>
   12430:	83 ec 0c             	sub    $0xc,%esp
   12433:	68 7f 37 01 00       	push   $0x1377f
   12438:	e8 33 e1 ff ff       	call   10570 <printk>
   1243d:	83 c4 10             	add    $0x10,%esp
   12440:	83 ec 04             	sub    $0x4,%esp
   12443:	68 80 00 00 00       	push   $0x80
   12448:	ff 75 08             	push   0x8(%ebp)
   1244b:	68 f0 01 00 00       	push   $0x1f0
   12450:	e8 87 09 00 00       	call   12ddc <outsl>
   12455:	83 c4 10             	add    $0x10,%esp
   12458:	a1 ec 5e 01 00       	mov    0x15eec,%eax
   1245d:	85 c0                	test   %eax,%eax
   1245f:	74 10                	je     12471 <idewrite+0x160>
   12461:	83 ec 0c             	sub    $0xc,%esp
   12464:	68 90 37 01 00       	push   $0x13790
   12469:	e8 02 e1 ff ff       	call   10570 <printk>
   1246e:	83 c4 10             	add    $0x10,%esp
   12471:	83 ec 0c             	sub    $0xc,%esp
   12474:	6a 00                	push   $0x0
   12476:	e8 ba fb ff ff       	call   12035 <idewait>
   1247b:	83 c4 10             	add    $0x10,%esp
   1247e:	a1 ec 5e 01 00       	mov    0x15eec,%eax
   12483:	85 c0                	test   %eax,%eax
   12485:	74 10                	je     12497 <idewrite+0x186>
   12487:	83 ec 0c             	sub    $0xc,%esp
   1248a:	68 9f 37 01 00       	push   $0x1379f
   1248f:	e8 dc e0 ff ff       	call   10570 <printk>
   12494:	83 c4 10             	add    $0x10,%esp
   12497:	b8 00 00 00 00       	mov    $0x0,%eax
   1249c:	c9                   	leave
   1249d:	c3                   	ret

0001249e <ideread>:
   1249e:	f3 0f 1e fb          	endbr32
   124a2:	55                   	push   %ebp
   124a3:	89 e5                	mov    %esp,%ebp
   124a5:	83 ec 18             	sub    $0x18,%esp
   124a8:	83 7d 08 00          	cmpl   $0x0,0x8(%ebp)
   124ac:	75 0a                	jne    124b8 <ideread+0x1a>
   124ae:	b8 ff ff ff ff       	mov    $0xffffffff,%eax
   124b3:	e9 a3 01 00 00       	jmp    1265b <ideread+0x1bd>
   124b8:	a1 ec 5e 01 00       	mov    0x15eec,%eax
   124bd:	85 c0                	test   %eax,%eax
   124bf:	74 10                	je     124d1 <ideread+0x33>
   124c1:	83 ec 0c             	sub    $0xc,%esp
   124c4:	68 aa 37 01 00       	push   $0x137aa
   124c9:	e8 a2 e0 ff ff       	call   10570 <printk>
   124ce:	83 c4 10             	add    $0x10,%esp
   124d1:	83 ec 0c             	sub    $0xc,%esp
   124d4:	6a 00                	push   $0x0
   124d6:	e8 5a fb ff ff       	call   12035 <idewait>
   124db:	83 c4 10             	add    $0x10,%esp
   124de:	a1 ec 5e 01 00       	mov    0x15eec,%eax
   124e3:	85 c0                	test   %eax,%eax
   124e5:	74 10                	je     124f7 <ideread+0x59>
   124e7:	83 ec 0c             	sub    $0xc,%esp
   124ea:	68 c0 37 01 00       	push   $0x137c0
   124ef:	e8 7c e0 ff ff       	call   10570 <printk>
   124f4:	83 c4 10             	add    $0x10,%esp
   124f7:	83 ec 04             	sub    $0x4,%esp
   124fa:	6a 00                	push   $0x0
   124fc:	ff 75 0c             	push   0xc(%ebp)
   124ff:	6a 01                	push   $0x1
   12501:	e8 39 fd ff ff       	call   1223f <idesetblock>
   12506:	83 c4 10             	add    $0x10,%esp
   12509:	83 ec 08             	sub    $0x8,%esp
   1250c:	6a 02                	push   $0x2
   1250e:	68 f6 03 00 00       	push   $0x3f6
   12513:	e8 73 08 00 00       	call   12d8b <outb>
   12518:	83 c4 10             	add    $0x10,%esp
   1251b:	83 ec 08             	sub    $0x8,%esp
   1251e:	6a 20                	push   $0x20
   12520:	68 f7 01 00 00       	push   $0x1f7
   12525:	e8 61 08 00 00       	call   12d8b <outb>
   1252a:	83 c4 10             	add    $0x10,%esp
   1252d:	a1 ec 5e 01 00       	mov    0x15eec,%eax
   12532:	85 c0                	test   %eax,%eax
   12534:	74 10                	je     12546 <ideread+0xa8>
   12536:	83 ec 0c             	sub    $0xc,%esp
   12539:	68 d2 37 01 00       	push   $0x137d2
   1253e:	e8 2d e0 ff ff       	call   10570 <printk>
   12543:	83 c4 10             	add    $0x10,%esp
   12546:	a1 ec 5e 01 00       	mov    0x15eec,%eax
   1254b:	85 c0                	test   %eax,%eax
   1254d:	74 10                	je     1255f <ideread+0xc1>
   1254f:	83 ec 0c             	sub    $0xc,%esp
   12552:	68 e9 37 01 00       	push   $0x137e9
   12557:	e8 14 e0 ff ff       	call   10570 <printk>
   1255c:	83 c4 10             	add    $0x10,%esp
   1255f:	c7 45 f4 00 00 00 00 	movl   $0x0,-0xc(%ebp)
   12566:	eb 30                	jmp    12598 <ideread+0xfa>
   12568:	8b 45 f0             	mov    -0x10(%ebp),%eax
   1256b:	0f b6 c0             	movzbl %al,%eax
   1256e:	83 ec 0c             	sub    $0xc,%esp
   12571:	50                   	push   %eax
   12572:	e8 3b 01 00 00       	call   126b2 <decodeStatusRegister>
   12577:	83 c4 10             	add    $0x10,%esp
   1257a:	83 7d f4 04          	cmpl   $0x4,-0xc(%ebp)
   1257e:	76 14                	jbe    12594 <ideread+0xf6>
   12580:	8b 45 f0             	mov    -0x10(%ebp),%eax
   12583:	83 e0 01             	and    $0x1,%eax
   12586:	85 c0                	test   %eax,%eax
   12588:	74 0a                	je     12594 <ideread+0xf6>
   1258a:	b8 ff ff ff ff       	mov    $0xffffffff,%eax
   1258f:	e9 c7 00 00 00       	jmp    1265b <ideread+0x1bd>
   12594:	83 45 f4 01          	addl   $0x1,-0xc(%ebp)
   12598:	83 ec 0c             	sub    $0xc,%esp
   1259b:	68 f6 03 00 00       	push   $0x3f6
   125a0:	e8 fb de ff ff       	call   104a0 <inb>
   125a5:	83 c4 10             	add    $0x10,%esp
   125a8:	0f b6 c0             	movzbl %al,%eax
   125ab:	89 45 f0             	mov    %eax,-0x10(%ebp)
   125ae:	8b 45 f0             	mov    -0x10(%ebp),%eax
   125b1:	25 88 00 00 00       	and    $0x88,%eax
   125b6:	83 f8 08             	cmp    $0x8,%eax
   125b9:	75 ad                	jne    12568 <ideread+0xca>
   125bb:	a1 ec 5e 01 00       	mov    0x15eec,%eax
   125c0:	85 c0                	test   %eax,%eax
   125c2:	74 10                	je     125d4 <ideread+0x136>
   125c4:	83 ec 0c             	sub    $0xc,%esp
   125c7:	68 39 37 01 00       	push   $0x13739
   125cc:	e8 9f df ff ff       	call   10570 <printk>
   125d1:	83 c4 10             	add    $0x10,%esp
   125d4:	8b 45 f0             	mov    -0x10(%ebp),%eax
   125d7:	0f b6 c0             	movzbl %al,%eax
   125da:	83 ec 0c             	sub    $0xc,%esp
   125dd:	50                   	push   %eax
   125de:	e8 cf 00 00 00       	call   126b2 <decodeStatusRegister>
   125e3:	83 c4 10             	add    $0x10,%esp
   125e6:	a1 ec 5e 01 00       	mov    0x15eec,%eax
   125eb:	85 c0                	test   %eax,%eax
   125ed:	74 10                	je     125ff <ideread+0x161>
   125ef:	83 ec 0c             	sub    $0xc,%esp
   125f2:	68 01 38 01 00       	push   $0x13801
   125f7:	e8 74 df ff ff       	call   10570 <printk>
   125fc:	83 c4 10             	add    $0x10,%esp
   125ff:	83 ec 04             	sub    $0x4,%esp
   12602:	68 80 00 00 00       	push   $0x80
   12607:	ff 75 08             	push   0x8(%ebp)
   1260a:	68 f0 01 00 00       	push   $0x1f0
   1260f:	e8 9e 07 00 00       	call   12db2 <insl>
   12614:	83 c4 10             	add    $0x10,%esp
   12617:	a1 ec 5e 01 00       	mov    0x15eec,%eax
   1261c:	85 c0                	test   %eax,%eax
   1261e:	74 10                	je     12630 <ideread+0x192>
   12620:	83 ec 0c             	sub    $0xc,%esp
   12623:	68 12 38 01 00       	push   $0x13812
   12628:	e8 43 df ff ff       	call   10570 <printk>
   1262d:	83 c4 10             	add    $0x10,%esp
   12630:	83 ec 0c             	sub    $0xc,%esp
   12633:	6a 00                	push   $0x0
   12635:	e8 fb f9 ff ff       	call   12035 <idewait>
   1263a:	83 c4 10             	add    $0x10,%esp
   1263d:	a1 ec 5e 01 00       	mov    0x15eec,%eax
   12642:	85 c0                	test   %eax,%eax
   12644:	74 10                	je     12656 <ideread+0x1b8>
   12646:	83 ec 0c             	sub    $0xc,%esp
   12649:	68 1e 38 01 00       	push   $0x1381e
   1264e:	e8 1d df ff ff       	call   10570 <printk>
   12653:	83 c4 10             	add    $0x10,%esp
   12656:	b8 00 00 00 00       	mov    $0x0,%eax
   1265b:	c9                   	leave
   1265c:	c3                   	ret

0001265d <tobinary>:
   1265d:	f3 0f 1e fb          	endbr32
   12661:	55                   	push   %ebp
   12662:	89 e5                	mov    %esp,%ebp
   12664:	83 ec 14             	sub    $0x14,%esp
   12667:	8b 45 08             	mov    0x8(%ebp),%eax
   1266a:	88 45 ec             	mov    %al,-0x14(%ebp)
   1266d:	8b 45 0c             	mov    0xc(%ebp),%eax
   12670:	83 c0 08             	add    $0x8,%eax
   12673:	c6 00 00             	movb   $0x0,(%eax)
   12676:	c7 45 fc 07 00 00 00 	movl   $0x7,-0x4(%ebp)
   1267d:	eb 28                	jmp    126a7 <tobinary+0x4a>
   1267f:	0f b6 45 ec          	movzbl -0x14(%ebp),%eax
   12683:	83 e0 01             	and    $0x1,%eax
   12686:	85 c0                	test   %eax,%eax
   12688:	74 07                	je     12691 <tobinary+0x34>
   1268a:	b9 31 00 00 00       	mov    $0x31,%ecx
   1268f:	eb 05                	jmp    12696 <tobinary+0x39>
   12691:	b9 30 00 00 00       	mov    $0x30,%ecx
   12696:	8b 55 fc             	mov    -0x4(%ebp),%edx
   12699:	8b 45 0c             	mov    0xc(%ebp),%eax
   1269c:	01 d0                	add    %edx,%eax
   1269e:	88 08                	mov    %cl,(%eax)
   126a0:	d0 6d ec             	shrb   -0x14(%ebp)
   126a3:	83 6d fc 01          	subl   $0x1,-0x4(%ebp)
   126a7:	83 7d fc 00          	cmpl   $0x0,-0x4(%ebp)
   126ab:	79 d2                	jns    1267f <tobinary+0x22>
   126ad:	8b 45 0c             	mov    0xc(%ebp),%eax
   126b0:	c9                   	leave
   126b1:	c3                   	ret

000126b2 <decodeStatusRegister>:
   126b2:	f3 0f 1e fb          	endbr32
   126b6:	55                   	push   %ebp
   126b7:	89 e5                	mov    %esp,%ebp
   126b9:	83 ec 38             	sub    $0x38,%esp
   126bc:	8b 45 08             	mov    0x8(%ebp),%eax
   126bf:	88 45 d4             	mov    %al,-0x2c(%ebp)
   126c2:	a1 ec 5e 01 00       	mov    0x15eec,%eax
   126c7:	85 c0                	test   %eax,%eax
   126c9:	0f 84 71 01 00 00    	je     12840 <decodeStatusRegister+0x18e>
   126cf:	83 ec 0c             	sub    $0xc,%esp
   126d2:	68 28 38 01 00       	push   $0x13828
   126d7:	e8 94 de ff ff       	call   10570 <printk>
   126dc:	83 c4 10             	add    $0x10,%esp
   126df:	0f b6 45 d4          	movzbl -0x2c(%ebp),%eax
   126e3:	83 ec 08             	sub    $0x8,%esp
   126e6:	8d 55 e4             	lea    -0x1c(%ebp),%edx
   126e9:	52                   	push   %edx
   126ea:	50                   	push   %eax
   126eb:	e8 a0 07 00 00       	call   12e90 <itoa>
   126f0:	83 c4 10             	add    $0x10,%esp
   126f3:	83 ec 0c             	sub    $0xc,%esp
   126f6:	8d 45 e4             	lea    -0x1c(%ebp),%eax
   126f9:	50                   	push   %eax
   126fa:	e8 71 de ff ff       	call   10570 <printk>
   126ff:	83 c4 10             	add    $0x10,%esp
   12702:	83 ec 0c             	sub    $0xc,%esp
   12705:	68 3a 38 01 00       	push   $0x1383a
   1270a:	e8 61 de ff ff       	call   10570 <printk>
   1270f:	83 c4 10             	add    $0x10,%esp
   12712:	0f b6 45 d4          	movzbl -0x2c(%ebp),%eax
   12716:	83 ec 08             	sub    $0x8,%esp
   12719:	8d 55 e4             	lea    -0x1c(%ebp),%edx
   1271c:	52                   	push   %edx
   1271d:	50                   	push   %eax
   1271e:	e8 3a ff ff ff       	call   1265d <tobinary>
   12723:	83 c4 10             	add    $0x10,%esp
   12726:	83 ec 0c             	sub    $0xc,%esp
   12729:	50                   	push   %eax
   1272a:	e8 41 de ff ff       	call   10570 <printk>
   1272f:	83 c4 10             	add    $0x10,%esp
   12732:	83 ec 0c             	sub    $0xc,%esp
   12735:	68 3a 38 01 00       	push   $0x1383a
   1273a:	e8 31 de ff ff       	call   10570 <printk>
   1273f:	83 c4 10             	add    $0x10,%esp
   12742:	0f b6 45 d4          	movzbl -0x2c(%ebp),%eax
   12746:	84 c0                	test   %al,%al
   12748:	79 07                	jns    12751 <decodeStatusRegister+0x9f>
   1274a:	b8 3e 38 01 00       	mov    $0x1383e,%eax
   1274f:	eb 05                	jmp    12756 <decodeStatusRegister+0xa4>
   12751:	b8 43 38 01 00       	mov    $0x13843,%eax
   12756:	83 ec 0c             	sub    $0xc,%esp
   12759:	50                   	push   %eax
   1275a:	e8 11 de ff ff       	call   10570 <printk>
   1275f:	83 c4 10             	add    $0x10,%esp
   12762:	83 ec 0c             	sub    $0xc,%esp
   12765:	68 48 38 01 00       	push   $0x13848
   1276a:	e8 01 de ff ff       	call   10570 <printk>
   1276f:	83 c4 10             	add    $0x10,%esp
   12772:	0f b6 45 d4          	movzbl -0x2c(%ebp),%eax
   12776:	83 e0 40             	and    $0x40,%eax
   12779:	85 c0                	test   %eax,%eax
   1277b:	74 07                	je     12784 <decodeStatusRegister+0xd2>
   1277d:	b8 4a 38 01 00       	mov    $0x1384a,%eax
   12782:	eb 05                	jmp    12789 <decodeStatusRegister+0xd7>
   12784:	b8 50 38 01 00       	mov    $0x13850,%eax
   12789:	83 ec 0c             	sub    $0xc,%esp
   1278c:	50                   	push   %eax
   1278d:	e8 de dd ff ff       	call   10570 <printk>
   12792:	83 c4 10             	add    $0x10,%esp
   12795:	83 ec 0c             	sub    $0xc,%esp
   12798:	68 48 38 01 00       	push   $0x13848
   1279d:	e8 ce dd ff ff       	call   10570 <printk>
   127a2:	83 c4 10             	add    $0x10,%esp
   127a5:	0f b6 45 d4          	movzbl -0x2c(%ebp),%eax
   127a9:	83 e0 20             	and    $0x20,%eax
   127ac:	85 c0                	test   %eax,%eax
   127ae:	74 07                	je     127b7 <decodeStatusRegister+0x105>
   127b0:	b8 56 38 01 00       	mov    $0x13856,%eax
   127b5:	eb 05                	jmp    127bc <decodeStatusRegister+0x10a>
   127b7:	b8 5c 38 01 00       	mov    $0x1385c,%eax
   127bc:	83 ec 0c             	sub    $0xc,%esp
   127bf:	50                   	push   %eax
   127c0:	e8 ab dd ff ff       	call   10570 <printk>
   127c5:	83 c4 10             	add    $0x10,%esp
   127c8:	83 ec 0c             	sub    $0xc,%esp
   127cb:	68 62 38 01 00       	push   $0x13862
   127d0:	e8 9b dd ff ff       	call   10570 <printk>
   127d5:	83 c4 10             	add    $0x10,%esp
   127d8:	0f b6 45 d4          	movzbl -0x2c(%ebp),%eax
   127dc:	83 e0 08             	and    $0x8,%eax
   127df:	85 c0                	test   %eax,%eax
   127e1:	74 07                	je     127ea <decodeStatusRegister+0x138>
   127e3:	b8 66 38 01 00       	mov    $0x13866,%eax
   127e8:	eb 05                	jmp    127ef <decodeStatusRegister+0x13d>
   127ea:	b8 6f 38 01 00       	mov    $0x1386f,%eax
   127ef:	83 ec 0c             	sub    $0xc,%esp
   127f2:	50                   	push   %eax
   127f3:	e8 78 dd ff ff       	call   10570 <printk>
   127f8:	83 c4 10             	add    $0x10,%esp
   127fb:	83 ec 0c             	sub    $0xc,%esp
   127fe:	68 78 38 01 00       	push   $0x13878
   12803:	e8 68 dd ff ff       	call   10570 <printk>
   12808:	83 c4 10             	add    $0x10,%esp
   1280b:	0f b6 45 d4          	movzbl -0x2c(%ebp),%eax
   1280f:	83 e0 01             	and    $0x1,%eax
   12812:	85 c0                	test   %eax,%eax
   12814:	74 07                	je     1281d <decodeStatusRegister+0x16b>
   12816:	b8 7e 38 01 00       	mov    $0x1387e,%eax
   1281b:	eb 05                	jmp    12822 <decodeStatusRegister+0x170>
   1281d:	b8 84 38 01 00       	mov    $0x13884,%eax
   12822:	83 ec 0c             	sub    $0xc,%esp
   12825:	50                   	push   %eax
   12826:	e8 45 dd ff ff       	call   10570 <printk>
   1282b:	83 c4 10             	add    $0x10,%esp
   1282e:	83 ec 0c             	sub    $0xc,%esp
   12831:	68 39 37 01 00       	push   $0x13739
   12836:	e8 35 dd ff ff       	call   10570 <printk>
   1283b:	83 c4 10             	add    $0x10,%esp
   1283e:	eb 01                	jmp    12841 <decodeStatusRegister+0x18f>
   12840:	90                   	nop
   12841:	c9                   	leave
   12842:	c3                   	ret

00012843 <ide_routine>:
   12843:	f3 0f 1e fb          	endbr32
   12847:	55                   	push   %ebp
   12848:	89 e5                	mov    %esp,%ebp
   1284a:	83 ec 18             	sub    $0x18,%esp
   1284d:	a1 ec 5e 01 00       	mov    0x15eec,%eax
   12852:	85 c0                	test   %eax,%eax
   12854:	74 10                	je     12866 <ide_routine+0x23>
   12856:	83 ec 0c             	sub    $0xc,%esp
   12859:	68 8c 38 01 00       	push   $0x1388c
   1285e:	e8 0d dd ff ff       	call   10570 <printk>
   12863:	83 c4 10             	add    $0x10,%esp
   12866:	83 ec 0c             	sub    $0xc,%esp
   12869:	68 f7 01 00 00       	push   $0x1f7
   1286e:	e8 2d dc ff ff       	call   104a0 <inb>
   12873:	83 c4 10             	add    $0x10,%esp
   12876:	88 45 f7             	mov    %al,-0x9(%ebp)
   12879:	0f b6 45 f7          	movzbl -0x9(%ebp),%eax
   1287d:	83 ec 0c             	sub    $0xc,%esp
   12880:	50                   	push   %eax
   12881:	e8 2c fe ff ff       	call   126b2 <decodeStatusRegister>
   12886:	83 c4 10             	add    $0x10,%esp
   12889:	90                   	nop
   1288a:	c9                   	leave
   1288b:	c3                   	ret

0001288c <init_block.1082>:
   1288c:	55                   	push   %ebp
   1288d:	89 e5                	mov    %esp,%ebp
   1288f:	83 ec 18             	sub    $0x18,%esp
   12892:	8b 45 0c             	mov    0xc(%ebp),%eax
   12895:	88 45 ec             	mov    %al,-0x14(%ebp)
   12898:	89 4d e8             	mov    %ecx,-0x18(%ebp)
   1289b:	c7 45 fc 00 00 00 00 	movl   $0x0,-0x4(%ebp)
   128a2:	eb 12                	jmp    128b6 <init_block.1082+0x2a>
   128a4:	8b 55 fc             	mov    -0x4(%ebp),%edx
   128a7:	8b 45 08             	mov    0x8(%ebp),%eax
   128aa:	01 c2                	add    %eax,%edx
   128ac:	0f b6 45 ec          	movzbl -0x14(%ebp),%eax
   128b0:	88 02                	mov    %al,(%edx)
   128b2:	83 45 fc 01          	addl   $0x1,-0x4(%ebp)
   128b6:	81 7d fc ff 01 00 00 	cmpl   $0x1ff,-0x4(%ebp)
   128bd:	7e e5                	jle    128a4 <init_block.1082+0x18>
   128bf:	90                   	nop
   128c0:	90                   	nop
   128c1:	c9                   	leave
   128c2:	c3                   	ret

000128c3 <ide_check_disk>:
   128c3:	f3 0f 1e fb          	endbr32
   128c7:	55                   	push   %ebp
   128c8:	89 e5                	mov    %esp,%ebp
   128ca:	81 ec 18 02 00 00    	sub    $0x218,%esp
   128d0:	8d 45 08             	lea    0x8(%ebp),%eax
   128d3:	89 85 ec fd ff ff    	mov    %eax,-0x214(%ebp)
   128d9:	a1 e0 5e 01 00       	mov    0x15ee0,%eax
   128de:	85 c0                	test   %eax,%eax
   128e0:	75 23                	jne    12905 <ide_check_disk+0x42>
   128e2:	a1 e4 5e 01 00       	mov    0x15ee4,%eax
   128e7:	85 c0                	test   %eax,%eax
   128e9:	75 1a                	jne    12905 <ide_check_disk+0x42>
   128eb:	83 ec 0c             	sub    $0xc,%esp
   128ee:	68 bc 38 01 00       	push   $0x138bc
   128f3:	e8 78 dc ff ff       	call   10570 <printk>
   128f8:	83 c4 10             	add    $0x10,%esp
   128fb:	b8 ff ff ff ff       	mov    $0xffffffff,%eax
   12900:	e9 3e 04 00 00       	jmp    12d43 <ide_check_disk+0x480>
   12905:	c7 45 f0 00 00 00 00 	movl   $0x0,-0x10(%ebp)
   1290c:	83 ec 0c             	sub    $0xc,%esp
   1290f:	68 d0 38 01 00       	push   $0x138d0
   12914:	e8 57 dc ff ff       	call   10570 <printk>
   12919:	83 c4 10             	add    $0x10,%esp
   1291c:	83 ec 08             	sub    $0x8,%esp
   1291f:	8d 85 ec fd ff ff    	lea    -0x214(%ebp),%eax
   12925:	6a ff                	push   $0xffffffff
   12927:	8d 95 f0 fd ff ff    	lea    -0x210(%ebp),%edx
   1292d:	52                   	push   %edx
   1292e:	89 c1                	mov    %eax,%ecx
   12930:	e8 57 ff ff ff       	call   1288c <init_block.1082>
   12935:	83 c4 10             	add    $0x10,%esp
   12938:	c7 45 f4 00 00 00 00 	movl   $0x0,-0xc(%ebp)
   1293f:	eb 1c                	jmp    1295d <ide_check_disk+0x9a>
   12941:	83 ec 08             	sub    $0x8,%esp
   12944:	ff 75 f4             	push   -0xc(%ebp)
   12947:	8d 85 f0 fd ff ff    	lea    -0x210(%ebp),%eax
   1294d:	50                   	push   %eax
   1294e:	e8 be f9 ff ff       	call   12311 <idewrite>
   12953:	83 c4 10             	add    $0x10,%esp
   12956:	89 45 f0             	mov    %eax,-0x10(%ebp)
   12959:	83 45 f4 01          	addl   $0x1,-0xc(%ebp)
   1295d:	83 7d f0 00          	cmpl   $0x0,-0x10(%ebp)
   12961:	79 de                	jns    12941 <ide_check_disk+0x7e>
   12963:	8b 45 f4             	mov    -0xc(%ebp),%eax
   12966:	83 e8 01             	sub    $0x1,%eax
   12969:	89 c2                	mov    %eax,%edx
   1296b:	83 ec 08             	sub    $0x8,%esp
   1296e:	8d 85 f0 fd ff ff    	lea    -0x210(%ebp),%eax
   12974:	50                   	push   %eax
   12975:	52                   	push   %edx
   12976:	e8 15 05 00 00       	call   12e90 <itoa>
   1297b:	83 c4 10             	add    $0x10,%esp
   1297e:	83 ec 0c             	sub    $0xc,%esp
   12981:	68 39 37 01 00       	push   $0x13739
   12986:	e8 e5 db ff ff       	call   10570 <printk>
   1298b:	83 c4 10             	add    $0x10,%esp
   1298e:	83 ec 0c             	sub    $0xc,%esp
   12991:	8d 85 f0 fd ff ff    	lea    -0x210(%ebp),%eax
   12997:	50                   	push   %eax
   12998:	e8 d3 db ff ff       	call   10570 <printk>
   1299d:	83 c4 10             	add    $0x10,%esp
   129a0:	83 ec 0c             	sub    $0xc,%esp
   129a3:	68 e6 38 01 00       	push   $0x138e6
   129a8:	e8 c3 db ff ff       	call   10570 <printk>
   129ad:	83 c4 10             	add    $0x10,%esp
   129b0:	8b 45 f4             	mov    -0xc(%ebp),%eax
   129b3:	83 e8 01             	sub    $0x1,%eax
   129b6:	a3 e8 5e 01 00       	mov    %eax,0x15ee8
   129bb:	c7 45 f0 00 00 00 00 	movl   $0x0,-0x10(%ebp)
   129c2:	c7 45 f4 00 00 00 00 	movl   $0x0,-0xc(%ebp)
   129c9:	eb 1c                	jmp    129e7 <ide_check_disk+0x124>
   129cb:	83 ec 08             	sub    $0x8,%esp
   129ce:	ff 75 f4             	push   -0xc(%ebp)
   129d1:	8d 85 f0 fd ff ff    	lea    -0x210(%ebp),%eax
   129d7:	50                   	push   %eax
   129d8:	e8 c1 fa ff ff       	call   1249e <ideread>
   129dd:	83 c4 10             	add    $0x10,%esp
   129e0:	89 45 f0             	mov    %eax,-0x10(%ebp)
   129e3:	83 45 f4 01          	addl   $0x1,-0xc(%ebp)
   129e7:	83 7d f0 00          	cmpl   $0x0,-0x10(%ebp)
   129eb:	79 de                	jns    129cb <ide_check_disk+0x108>
   129ed:	8b 45 f4             	mov    -0xc(%ebp),%eax
   129f0:	83 e8 01             	sub    $0x1,%eax
   129f3:	89 c2                	mov    %eax,%edx
   129f5:	83 ec 08             	sub    $0x8,%esp
   129f8:	8d 85 f0 fd ff ff    	lea    -0x210(%ebp),%eax
   129fe:	50                   	push   %eax
   129ff:	52                   	push   %edx
   12a00:	e8 8b 04 00 00       	call   12e90 <itoa>
   12a05:	83 c4 10             	add    $0x10,%esp
   12a08:	83 ec 0c             	sub    $0xc,%esp
   12a0b:	68 39 37 01 00       	push   $0x13739
   12a10:	e8 5b db ff ff       	call   10570 <printk>
   12a15:	83 c4 10             	add    $0x10,%esp
   12a18:	83 ec 0c             	sub    $0xc,%esp
   12a1b:	8d 85 f0 fd ff ff    	lea    -0x210(%ebp),%eax
   12a21:	50                   	push   %eax
   12a22:	e8 49 db ff ff       	call   10570 <printk>
   12a27:	83 c4 10             	add    $0x10,%esp
   12a2a:	83 ec 0c             	sub    $0xc,%esp
   12a2d:	68 f6 38 01 00       	push   $0x138f6
   12a32:	e8 39 db ff ff       	call   10570 <printk>
   12a37:	83 c4 10             	add    $0x10,%esp
   12a3a:	83 ec 0c             	sub    $0xc,%esp
   12a3d:	68 04 39 01 00       	push   $0x13904
   12a42:	e8 29 db ff ff       	call   10570 <printk>
   12a47:	83 c4 10             	add    $0x10,%esp
   12a4a:	83 ec 08             	sub    $0x8,%esp
   12a4d:	8d 85 ec fd ff ff    	lea    -0x214(%ebp),%eax
   12a53:	6a ab                	push   $0xffffffab
   12a55:	8d 95 f0 fd ff ff    	lea    -0x210(%ebp),%edx
   12a5b:	52                   	push   %edx
   12a5c:	89 c1                	mov    %eax,%ecx
   12a5e:	e8 29 fe ff ff       	call   1288c <init_block.1082>
   12a63:	83 c4 10             	add    $0x10,%esp
   12a66:	83 ec 08             	sub    $0x8,%esp
   12a69:	6a 01                	push   $0x1
   12a6b:	8d 85 f0 fd ff ff    	lea    -0x210(%ebp),%eax
   12a71:	50                   	push   %eax
   12a72:	e8 9a f8 ff ff       	call   12311 <idewrite>
   12a77:	83 c4 10             	add    $0x10,%esp
   12a7a:	83 ec 0c             	sub    $0xc,%esp
   12a7d:	68 2c 39 01 00       	push   $0x1392c
   12a82:	e8 e9 da ff ff       	call   10570 <printk>
   12a87:	83 c4 10             	add    $0x10,%esp
   12a8a:	83 ec 08             	sub    $0x8,%esp
   12a8d:	8d 85 ec fd ff ff    	lea    -0x214(%ebp),%eax
   12a93:	6a ca                	push   $0xffffffca
   12a95:	8d 95 f0 fd ff ff    	lea    -0x210(%ebp),%edx
   12a9b:	52                   	push   %edx
   12a9c:	89 c1                	mov    %eax,%ecx
   12a9e:	e8 e9 fd ff ff       	call   1288c <init_block.1082>
   12aa3:	83 c4 10             	add    $0x10,%esp
   12aa6:	83 ec 08             	sub    $0x8,%esp
   12aa9:	6a 03                	push   $0x3
   12aab:	8d 85 f0 fd ff ff    	lea    -0x210(%ebp),%eax
   12ab1:	50                   	push   %eax
   12ab2:	e8 5a f8 ff ff       	call   12311 <idewrite>
   12ab7:	83 c4 10             	add    $0x10,%esp
   12aba:	83 ec 0c             	sub    $0xc,%esp
   12abd:	68 54 39 01 00       	push   $0x13954
   12ac2:	e8 a9 da ff ff       	call   10570 <printk>
   12ac7:	83 c4 10             	add    $0x10,%esp
   12aca:	83 ec 08             	sub    $0x8,%esp
   12acd:	8d 85 ec fd ff ff    	lea    -0x214(%ebp),%eax
   12ad3:	6a ab                	push   $0xffffffab
   12ad5:	8d 95 f0 fd ff ff    	lea    -0x210(%ebp),%edx
   12adb:	52                   	push   %edx
   12adc:	89 c1                	mov    %eax,%ecx
   12ade:	e8 a9 fd ff ff       	call   1288c <init_block.1082>
   12ae3:	83 c4 10             	add    $0x10,%esp
   12ae6:	83 ec 08             	sub    $0x8,%esp
   12ae9:	6a 05                	push   $0x5
   12aeb:	8d 85 f0 fd ff ff    	lea    -0x210(%ebp),%eax
   12af1:	50                   	push   %eax
   12af2:	e8 1a f8 ff ff       	call   12311 <idewrite>
   12af7:	83 c4 10             	add    $0x10,%esp
   12afa:	83 ec 08             	sub    $0x8,%esp
   12afd:	8d 85 ec fd ff ff    	lea    -0x214(%ebp),%eax
   12b03:	6a ff                	push   $0xffffffff
   12b05:	8d 95 f0 fd ff ff    	lea    -0x210(%ebp),%edx
   12b0b:	52                   	push   %edx
   12b0c:	89 c1                	mov    %eax,%ecx
   12b0e:	e8 79 fd ff ff       	call   1288c <init_block.1082>
   12b13:	83 c4 10             	add    $0x10,%esp
   12b16:	83 ec 08             	sub    $0x8,%esp
   12b19:	6a 05                	push   $0x5
   12b1b:	8d 85 f0 fd ff ff    	lea    -0x210(%ebp),%eax
   12b21:	50                   	push   %eax
   12b22:	e8 77 f9 ff ff       	call   1249e <ideread>
   12b27:	83 c4 10             	add    $0x10,%esp
   12b2a:	83 ec 0c             	sub    $0xc,%esp
   12b2d:	68 7c 39 01 00       	push   $0x1397c
   12b32:	e8 39 da ff ff       	call   10570 <printk>
   12b37:	83 c4 10             	add    $0x10,%esp
   12b3a:	83 ec 08             	sub    $0x8,%esp
   12b3d:	8d 85 ec fd ff ff    	lea    -0x214(%ebp),%eax
   12b43:	6a ab                	push   $0xffffffab
   12b45:	8d 95 f0 fd ff ff    	lea    -0x210(%ebp),%edx
   12b4b:	52                   	push   %edx
   12b4c:	89 c1                	mov    %eax,%ecx
   12b4e:	e8 f2 01 00 00       	call   12d45 <check_block.1090>
   12b53:	83 c4 10             	add    $0x10,%esp
   12b56:	89 45 f0             	mov    %eax,-0x10(%ebp)
   12b59:	83 7d f0 00          	cmpl   $0x0,-0x10(%ebp)
   12b5d:	78 07                	js     12b66 <ide_check_disk+0x2a3>
   12b5f:	b8 a8 39 01 00       	mov    $0x139a8,%eax
   12b64:	eb 05                	jmp    12b6b <ide_check_disk+0x2a8>
   12b66:	b8 ae 39 01 00       	mov    $0x139ae,%eax
   12b6b:	83 ec 0c             	sub    $0xc,%esp
   12b6e:	50                   	push   %eax
   12b6f:	e8 fc d9 ff ff       	call   10570 <printk>
   12b74:	83 c4 10             	add    $0x10,%esp
   12b77:	83 ec 08             	sub    $0x8,%esp
   12b7a:	8d 85 ec fd ff ff    	lea    -0x214(%ebp),%eax
   12b80:	6a ff                	push   $0xffffffff
   12b82:	8d 95 f0 fd ff ff    	lea    -0x210(%ebp),%edx
   12b88:	52                   	push   %edx
   12b89:	89 c1                	mov    %eax,%ecx
   12b8b:	e8 fc fc ff ff       	call   1288c <init_block.1082>
   12b90:	83 c4 10             	add    $0x10,%esp
   12b93:	83 ec 08             	sub    $0x8,%esp
   12b96:	6a 03                	push   $0x3
   12b98:	8d 85 f0 fd ff ff    	lea    -0x210(%ebp),%eax
   12b9e:	50                   	push   %eax
   12b9f:	e8 fa f8 ff ff       	call   1249e <ideread>
   12ba4:	83 c4 10             	add    $0x10,%esp
   12ba7:	83 ec 0c             	sub    $0xc,%esp
   12baa:	68 b4 39 01 00       	push   $0x139b4
   12baf:	e8 bc d9 ff ff       	call   10570 <printk>
   12bb4:	83 c4 10             	add    $0x10,%esp
   12bb7:	83 ec 08             	sub    $0x8,%esp
   12bba:	8d 85 ec fd ff ff    	lea    -0x214(%ebp),%eax
   12bc0:	6a ca                	push   $0xffffffca
   12bc2:	8d 95 f0 fd ff ff    	lea    -0x210(%ebp),%edx
   12bc8:	52                   	push   %edx
   12bc9:	89 c1                	mov    %eax,%ecx
   12bcb:	e8 75 01 00 00       	call   12d45 <check_block.1090>
   12bd0:	83 c4 10             	add    $0x10,%esp
   12bd3:	89 45 f0             	mov    %eax,-0x10(%ebp)
   12bd6:	83 7d f0 00          	cmpl   $0x0,-0x10(%ebp)
   12bda:	78 07                	js     12be3 <ide_check_disk+0x320>
   12bdc:	b8 a8 39 01 00       	mov    $0x139a8,%eax
   12be1:	eb 05                	jmp    12be8 <ide_check_disk+0x325>
   12be3:	b8 ae 39 01 00       	mov    $0x139ae,%eax
   12be8:	83 ec 0c             	sub    $0xc,%esp
   12beb:	50                   	push   %eax
   12bec:	e8 7f d9 ff ff       	call   10570 <printk>
   12bf1:	83 c4 10             	add    $0x10,%esp
   12bf4:	83 ec 08             	sub    $0x8,%esp
   12bf7:	8d 85 ec fd ff ff    	lea    -0x214(%ebp),%eax
   12bfd:	6a ff                	push   $0xffffffff
   12bff:	8d 95 f0 fd ff ff    	lea    -0x210(%ebp),%edx
   12c05:	52                   	push   %edx
   12c06:	89 c1                	mov    %eax,%ecx
   12c08:	e8 7f fc ff ff       	call   1288c <init_block.1082>
   12c0d:	83 c4 10             	add    $0x10,%esp
   12c10:	83 ec 08             	sub    $0x8,%esp
   12c13:	6a 01                	push   $0x1
   12c15:	8d 85 f0 fd ff ff    	lea    -0x210(%ebp),%eax
   12c1b:	50                   	push   %eax
   12c1c:	e8 7d f8 ff ff       	call   1249e <ideread>
   12c21:	83 c4 10             	add    $0x10,%esp
   12c24:	83 ec 0c             	sub    $0xc,%esp
   12c27:	68 e0 39 01 00       	push   $0x139e0
   12c2c:	e8 3f d9 ff ff       	call   10570 <printk>
   12c31:	83 c4 10             	add    $0x10,%esp
   12c34:	83 ec 08             	sub    $0x8,%esp
   12c37:	8d 85 ec fd ff ff    	lea    -0x214(%ebp),%eax
   12c3d:	6a ab                	push   $0xffffffab
   12c3f:	8d 95 f0 fd ff ff    	lea    -0x210(%ebp),%edx
   12c45:	52                   	push   %edx
   12c46:	89 c1                	mov    %eax,%ecx
   12c48:	e8 f8 00 00 00       	call   12d45 <check_block.1090>
   12c4d:	83 c4 10             	add    $0x10,%esp
   12c50:	89 45 f0             	mov    %eax,-0x10(%ebp)
   12c53:	83 7d f0 00          	cmpl   $0x0,-0x10(%ebp)
   12c57:	78 07                	js     12c60 <ide_check_disk+0x39d>
   12c59:	b8 a8 39 01 00       	mov    $0x139a8,%eax
   12c5e:	eb 05                	jmp    12c65 <ide_check_disk+0x3a2>
   12c60:	b8 ae 39 01 00       	mov    $0x139ae,%eax
   12c65:	83 ec 0c             	sub    $0xc,%esp
   12c68:	50                   	push   %eax
   12c69:	e8 02 d9 ff ff       	call   10570 <printk>
   12c6e:	83 c4 10             	add    $0x10,%esp
   12c71:	83 ec 0c             	sub    $0xc,%esp
   12c74:	68 0c 3a 01 00       	push   $0x13a0c
   12c79:	e8 f2 d8 ff ff       	call   10570 <printk>
   12c7e:	83 c4 10             	add    $0x10,%esp
   12c81:	83 ec 08             	sub    $0x8,%esp
   12c84:	8d 85 ec fd ff ff    	lea    -0x214(%ebp),%eax
   12c8a:	6a 22                	push   $0x22
   12c8c:	8d 95 f0 fd ff ff    	lea    -0x210(%ebp),%edx
   12c92:	52                   	push   %edx
   12c93:	89 c1                	mov    %eax,%ecx
   12c95:	e8 f2 fb ff ff       	call   1288c <init_block.1082>
   12c9a:	83 c4 10             	add    $0x10,%esp
   12c9d:	83 ec 08             	sub    $0x8,%esp
   12ca0:	6a 02                	push   $0x2
   12ca2:	8d 85 f0 fd ff ff    	lea    -0x210(%ebp),%eax
   12ca8:	50                   	push   %eax
   12ca9:	e8 63 f6 ff ff       	call   12311 <idewrite>
   12cae:	83 c4 10             	add    $0x10,%esp
   12cb1:	83 ec 08             	sub    $0x8,%esp
   12cb4:	8d 85 ec fd ff ff    	lea    -0x214(%ebp),%eax
   12cba:	6a ff                	push   $0xffffffff
   12cbc:	8d 95 f0 fd ff ff    	lea    -0x210(%ebp),%edx
   12cc2:	52                   	push   %edx
   12cc3:	89 c1                	mov    %eax,%ecx
   12cc5:	e8 c2 fb ff ff       	call   1288c <init_block.1082>
   12cca:	83 c4 10             	add    $0x10,%esp
   12ccd:	83 ec 08             	sub    $0x8,%esp
   12cd0:	6a 02                	push   $0x2
   12cd2:	8d 85 f0 fd ff ff    	lea    -0x210(%ebp),%eax
   12cd8:	50                   	push   %eax
   12cd9:	e8 c0 f7 ff ff       	call   1249e <ideread>
   12cde:	83 c4 10             	add    $0x10,%esp
   12ce1:	83 ec 08             	sub    $0x8,%esp
   12ce4:	8d 85 ec fd ff ff    	lea    -0x214(%ebp),%eax
   12cea:	6a 22                	push   $0x22
   12cec:	8d 95 f0 fd ff ff    	lea    -0x210(%ebp),%edx
   12cf2:	52                   	push   %edx
   12cf3:	89 c1                	mov    %eax,%ecx
   12cf5:	e8 4b 00 00 00       	call   12d45 <check_block.1090>
   12cfa:	83 c4 10             	add    $0x10,%esp
   12cfd:	89 45 f0             	mov    %eax,-0x10(%ebp)
   12d00:	83 ec 0c             	sub    $0xc,%esp
   12d03:	68 34 3a 01 00       	push   $0x13a34
   12d08:	e8 63 d8 ff ff       	call   10570 <printk>
   12d0d:	83 c4 10             	add    $0x10,%esp
   12d10:	83 7d f0 00          	cmpl   $0x0,-0x10(%ebp)
   12d14:	78 07                	js     12d1d <ide_check_disk+0x45a>
   12d16:	b8 a8 39 01 00       	mov    $0x139a8,%eax
   12d1b:	eb 05                	jmp    12d22 <ide_check_disk+0x45f>
   12d1d:	b8 ae 39 01 00       	mov    $0x139ae,%eax
   12d22:	83 ec 0c             	sub    $0xc,%esp
   12d25:	50                   	push   %eax
   12d26:	e8 45 d8 ff ff       	call   10570 <printk>
   12d2b:	83 c4 10             	add    $0x10,%esp
   12d2e:	83 ec 0c             	sub    $0xc,%esp
   12d31:	68 60 3a 01 00       	push   $0x13a60
   12d36:	e8 35 d8 ff ff       	call   10570 <printk>
   12d3b:	83 c4 10             	add    $0x10,%esp
   12d3e:	b8 00 00 00 00       	mov    $0x0,%eax
   12d43:	c9                   	leave
   12d44:	c3                   	ret

00012d45 <check_block.1090>:
   12d45:	55                   	push   %ebp
   12d46:	89 e5                	mov    %esp,%ebp
   12d48:	83 ec 18             	sub    $0x18,%esp
   12d4b:	8b 45 0c             	mov    0xc(%ebp),%eax
   12d4e:	88 45 ec             	mov    %al,-0x14(%ebp)
   12d51:	89 4d e8             	mov    %ecx,-0x18(%ebp)
   12d54:	c7 45 f8 ff ff ff ff 	movl   $0xffffffff,-0x8(%ebp)
   12d5b:	c7 45 fc 00 00 00 00 	movl   $0x0,-0x4(%ebp)
   12d62:	eb 19                	jmp    12d7d <check_block.1090+0x38>
   12d64:	8b 55 fc             	mov    -0x4(%ebp),%edx
   12d67:	8b 45 08             	mov    0x8(%ebp),%eax
   12d6a:	01 d0                	add    %edx,%eax
   12d6c:	0f b6 00             	movzbl (%eax),%eax
   12d6f:	38 45 ec             	cmp    %al,-0x14(%ebp)
   12d72:	74 05                	je     12d79 <check_block.1090+0x34>
   12d74:	8b 45 fc             	mov    -0x4(%ebp),%eax
   12d77:	eb 10                	jmp    12d89 <check_block.1090+0x44>
   12d79:	83 45 fc 01          	addl   $0x1,-0x4(%ebp)
   12d7d:	81 7d fc ff 01 00 00 	cmpl   $0x1ff,-0x4(%ebp)
   12d84:	7e de                	jle    12d64 <check_block.1090+0x1f>
   12d86:	8b 45 f8             	mov    -0x8(%ebp),%eax
   12d89:	c9                   	leave
   12d8a:	c3                   	ret

00012d8b <outb>:
   12d8b:	f3 0f 1e fb          	endbr32
   12d8f:	55                   	push   %ebp
   12d90:	89 e5                	mov    %esp,%ebp
   12d92:	83 ec 08             	sub    $0x8,%esp
   12d95:	8b 45 08             	mov    0x8(%ebp),%eax
   12d98:	8b 55 0c             	mov    0xc(%ebp),%edx
   12d9b:	66 89 45 fc          	mov    %ax,-0x4(%ebp)
   12d9f:	89 d0                	mov    %edx,%eax
   12da1:	88 45 f8             	mov    %al,-0x8(%ebp)
   12da4:	0f b6 45 f8          	movzbl -0x8(%ebp),%eax
   12da8:	0f b7 55 fc          	movzwl -0x4(%ebp),%edx
   12dac:	88 c0                	mov    %al,%al
   12dae:	ee                   	out    %al,(%dx)
   12daf:	90                   	nop
   12db0:	c9                   	leave
   12db1:	c3                   	ret

00012db2 <insl>:
   12db2:	f3 0f 1e fb          	endbr32
   12db6:	55                   	push   %ebp
   12db7:	89 e5                	mov    %esp,%ebp
   12db9:	57                   	push   %edi
   12dba:	53                   	push   %ebx
   12dbb:	8b 55 08             	mov    0x8(%ebp),%edx
   12dbe:	8b 4d 0c             	mov    0xc(%ebp),%ecx
   12dc1:	8b 45 10             	mov    0x10(%ebp),%eax
   12dc4:	89 cb                	mov    %ecx,%ebx
   12dc6:	89 df                	mov    %ebx,%edi
   12dc8:	89 c1                	mov    %eax,%ecx
   12dca:	fc                   	cld
   12dcb:	f3 6d                	rep insl (%dx),%es:(%edi)
   12dcd:	89 c8                	mov    %ecx,%eax
   12dcf:	89 fb                	mov    %edi,%ebx
   12dd1:	89 5d 0c             	mov    %ebx,0xc(%ebp)
   12dd4:	89 45 10             	mov    %eax,0x10(%ebp)
   12dd7:	90                   	nop
   12dd8:	5b                   	pop    %ebx
   12dd9:	5f                   	pop    %edi
   12dda:	5d                   	pop    %ebp
   12ddb:	c3                   	ret

00012ddc <outsl>:
   12ddc:	f3 0f 1e fb          	endbr32
   12de0:	55                   	push   %ebp
   12de1:	89 e5                	mov    %esp,%ebp
   12de3:	56                   	push   %esi
   12de4:	53                   	push   %ebx
   12de5:	8b 55 08             	mov    0x8(%ebp),%edx
   12de8:	8b 4d 0c             	mov    0xc(%ebp),%ecx
   12deb:	8b 45 10             	mov    0x10(%ebp),%eax
   12dee:	89 cb                	mov    %ecx,%ebx
   12df0:	89 de                	mov    %ebx,%esi
   12df2:	89 c1                	mov    %eax,%ecx
   12df4:	fc                   	cld
   12df5:	f3 6f                	rep outsl %ds:(%esi),(%dx)
   12df7:	89 c8                	mov    %ecx,%eax
   12df9:	89 f3                	mov    %esi,%ebx
   12dfb:	89 5d 0c             	mov    %ebx,0xc(%ebp)
   12dfe:	89 45 10             	mov    %eax,0x10(%ebp)
   12e01:	90                   	nop
   12e02:	5b                   	pop    %ebx
   12e03:	5e                   	pop    %esi
   12e04:	5d                   	pop    %ebp
   12e05:	c3                   	ret
   12e06:	66 90                	xchg   %ax,%ax
   12e08:	66 90                	xchg   %ax,%ax
   12e0a:	66 90                	xchg   %ax,%ax
   12e0c:	66 90                	xchg   %ax,%ax
   12e0e:	66 90                	xchg   %ax,%ax

00012e10 <itoa.part.0>:
   12e10:	89 d1                	mov    %edx,%ecx
   12e12:	85 c0                	test   %eax,%eax
   12e14:	7e 72                	jle    12e88 <itoa.part.0+0x78>
   12e16:	55                   	push   %ebp
   12e17:	89 e5                	mov    %esp,%ebp
   12e19:	57                   	push   %edi
   12e1a:	56                   	push   %esi
   12e1b:	89 c6                	mov    %eax,%esi
   12e1d:	53                   	push   %ebx
   12e1e:	31 db                	xor    %ebx,%ebx
   12e20:	83 ec 04             	sub    $0x4,%esp
   12e23:	8d 74 26 00          	lea    0x0(%esi,%eiz,1),%esi
   12e27:	90                   	nop
   12e28:	b8 cd cc cc cc       	mov    $0xcccccccd,%eax
   12e2d:	89 5d f0             	mov    %ebx,-0x10(%ebp)
   12e30:	f7 e6                	mul    %esi
   12e32:	89 f0                	mov    %esi,%eax
   12e34:	c1 ea 03             	shr    $0x3,%edx
   12e37:	8d 3c 92             	lea    (%edx,%edx,4),%edi
   12e3a:	01 ff                	add    %edi,%edi
   12e3c:	29 f8                	sub    %edi,%eax
   12e3e:	83 c0 30             	add    $0x30,%eax
   12e41:	88 04 19             	mov    %al,(%ecx,%ebx,1)
   12e44:	89 f0                	mov    %esi,%eax
   12e46:	83 c3 01             	add    $0x1,%ebx
   12e49:	89 d6                	mov    %edx,%esi
   12e4b:	83 f8 09             	cmp    $0x9,%eax
   12e4e:	7f d8                	jg     12e28 <itoa.part.0+0x18>
   12e50:	8d 04 19             	lea    (%ecx,%ebx,1),%eax
   12e53:	d1 fb                	sar    %ebx
   12e55:	74 21                	je     12e78 <itoa.part.0+0x68>
   12e57:	8b 75 f0             	mov    -0x10(%ebp),%esi
   12e5a:	01 cb                	add    %ecx,%ebx
   12e5c:	89 c7                	mov    %eax,%edi
   12e5e:	01 ce                	add    %ecx,%esi
   12e60:	0f b6 06             	movzbl (%esi),%eax
   12e63:	0f b6 11             	movzbl (%ecx),%edx
   12e66:	83 c1 01             	add    $0x1,%ecx
   12e69:	83 ee 01             	sub    $0x1,%esi
   12e6c:	88 41 ff             	mov    %al,-0x1(%ecx)
   12e6f:	88 56 01             	mov    %dl,0x1(%esi)
   12e72:	39 cb                	cmp    %ecx,%ebx
   12e74:	75 ea                	jne    12e60 <itoa.part.0+0x50>
   12e76:	89 f8                	mov    %edi,%eax
   12e78:	c6 00 00             	movb   $0x0,(%eax)
   12e7b:	83 c4 04             	add    $0x4,%esp
   12e7e:	5b                   	pop    %ebx
   12e7f:	5e                   	pop    %esi
   12e80:	5f                   	pop    %edi
   12e81:	5d                   	pop    %ebp
   12e82:	c3                   	ret
   12e83:	8d 74 26 00          	lea    0x0(%esi,%eiz,1),%esi
   12e87:	90                   	nop
   12e88:	c6 02 00             	movb   $0x0,(%edx)
   12e8b:	c3                   	ret
   12e8c:	8d 74 26 00          	lea    0x0(%esi,%eiz,1),%esi

00012e90 <itoa>:
   12e90:	55                   	push   %ebp
   12e91:	89 e5                	mov    %esp,%ebp
   12e93:	8b 45 08             	mov    0x8(%ebp),%eax
   12e96:	8b 55 0c             	mov    0xc(%ebp),%edx
   12e99:	85 c0                	test   %eax,%eax
   12e9b:	74 0b                	je     12ea8 <itoa+0x18>
   12e9d:	5d                   	pop    %ebp
   12e9e:	e9 6d ff ff ff       	jmp    12e10 <itoa.part.0>
   12ea3:	8d 74 26 00          	lea    0x0(%esi,%eiz,1),%esi
   12ea7:	90                   	nop
   12ea8:	0f b7 05 e2 4e 01 00 	movzwl 0x14ee2,%eax
   12eaf:	66 89 02             	mov    %ax,(%edx)
   12eb2:	5d                   	pop    %ebp
   12eb3:	c3                   	ret
   12eb4:	8d b4 26 00 00 00 00 	lea    0x0(%esi,%eiz,1),%esi
   12ebb:	8d 74 26 00          	lea    0x0(%esi,%eiz,1),%esi
   12ebf:	90                   	nop

00012ec0 <zeos_show_clock>:
   12ec0:	a1 f8 5e 01 00       	mov    0x15ef8,%eax
   12ec5:	83 c0 01             	add    $0x1,%eax
   12ec8:	a3 f8 5e 01 00       	mov    %eax,0x15ef8
   12ecd:	83 f8 12             	cmp    $0x12,%eax
   12ed0:	74 06                	je     12ed8 <zeos_show_clock+0x18>
   12ed2:	c3                   	ret
   12ed3:	8d 74 26 00          	lea    0x0(%esi,%eiz,1),%esi
   12ed7:	90                   	nop
   12ed8:	55                   	push   %ebp
   12ed9:	89 e5                	mov    %esp,%ebp
   12edb:	83 ec 10             	sub    $0x10,%esp
   12ede:	a1 f4 5e 01 00       	mov    0x15ef4,%eax
   12ee3:	c7 05 f8 5e 01 00 00 	movl   $0x0,0x15ef8
   12eea:	00 00 00 
   12eed:	8b 0d f0 5e 01 00    	mov    0x15ef0,%ecx
   12ef3:	83 c0 01             	add    $0x1,%eax
   12ef6:	a3 f4 5e 01 00       	mov    %eax,0x15ef4
   12efb:	83 f8 3c             	cmp    $0x3c,%eax
   12efe:	75 13                	jne    12f13 <zeos_show_clock+0x53>
   12f00:	c7 05 f4 5e 01 00 00 	movl   $0x0,0x15ef4
   12f07:	00 00 00 
   12f0a:	83 c1 01             	add    $0x1,%ecx
   12f0d:	89 0d f0 5e 01 00    	mov    %ecx,0x15ef0
   12f13:	85 c9                	test   %ecx,%ecx
   12f15:	0f 84 c5 00 00 00    	je     12fe0 <zeos_show_clock+0x120>
   12f1b:	8d 55 f8             	lea    -0x8(%ebp),%edx
   12f1e:	89 c8                	mov    %ecx,%eax
   12f20:	e8 eb fe ff ff       	call   12e10 <itoa.part.0>
   12f25:	a1 f4 5e 01 00       	mov    0x15ef4,%eax
   12f2a:	85 c0                	test   %eax,%eax
   12f2c:	0f 84 9e 00 00 00    	je     12fd0 <zeos_show_clock+0x110>
   12f32:	8d 55 fc             	lea    -0x4(%ebp),%edx
   12f35:	e8 d6 fe ff ff       	call   12e10 <itoa.part.0>
   12f3a:	a1 f4 5e 01 00       	mov    0x15ef4,%eax
   12f3f:	83 3d f0 5e 01 00 09 	cmpl   $0x9,0x15ef0
   12f46:	7f 48                	jg     12f90 <zeos_show_clock+0xd0>
   12f48:	b9 30 02 00 00       	mov    $0x230,%ecx
   12f4d:	66 89 0d 8c 80 0b 00 	mov    %cx,0xb808c
   12f54:	0f b6 55 f8          	movzbl -0x8(%ebp),%edx
   12f58:	80 ce 02             	or     $0x2,%dh
   12f5b:	66 89 15 8e 80 0b 00 	mov    %dx,0xb808e
   12f62:	ba 3a 02 00 00       	mov    $0x23a,%edx
   12f67:	66 89 15 90 80 0b 00 	mov    %dx,0xb8090
   12f6e:	83 f8 09             	cmp    $0x9,%eax
   12f71:	7e 3d                	jle    12fb0 <zeos_show_clock+0xf0>
   12f73:	0f b6 45 fc          	movzbl -0x4(%ebp),%eax
   12f77:	80 cc 02             	or     $0x2,%ah
   12f7a:	66 a3 92 80 0b 00    	mov    %ax,0xb8092
   12f80:	0f b6 45 fd          	movzbl -0x3(%ebp),%eax
   12f84:	80 cc 02             	or     $0x2,%ah
   12f87:	66 a3 94 80 0b 00    	mov    %ax,0xb8094
   12f8d:	c9                   	leave
   12f8e:	c3                   	ret
   12f8f:	90                   	nop
   12f90:	0f b6 55 f8          	movzbl -0x8(%ebp),%edx
   12f94:	80 ce 02             	or     $0x2,%dh
   12f97:	66 89 15 8c 80 0b 00 	mov    %dx,0xb808c
   12f9e:	0f b6 55 f9          	movzbl -0x7(%ebp),%edx
   12fa2:	80 ce 02             	or     $0x2,%dh
   12fa5:	eb b4                	jmp    12f5b <zeos_show_clock+0x9b>
   12fa7:	8d b4 26 00 00 00 00 	lea    0x0(%esi,%eiz,1),%esi
   12fae:	66 90                	xchg   %ax,%ax
   12fb0:	b8 30 02 00 00       	mov    $0x230,%eax
   12fb5:	66 a3 92 80 0b 00    	mov    %ax,0xb8092
   12fbb:	0f b6 45 fc          	movzbl -0x4(%ebp),%eax
   12fbf:	80 cc 02             	or     $0x2,%ah
   12fc2:	66 a3 94 80 0b 00    	mov    %ax,0xb8094
   12fc8:	c9                   	leave
   12fc9:	c3                   	ret
   12fca:	8d b6 00 00 00 00    	lea    0x0(%esi),%esi
   12fd0:	0f b7 15 e2 4e 01 00 	movzwl 0x14ee2,%edx
   12fd7:	66 89 55 fc          	mov    %dx,-0x4(%ebp)
   12fdb:	e9 5f ff ff ff       	jmp    12f3f <zeos_show_clock+0x7f>
   12fe0:	0f b7 05 e2 4e 01 00 	movzwl 0x14ee2,%eax
   12fe7:	66 89 45 f8          	mov    %ax,-0x8(%ebp)
   12feb:	e9 35 ff ff ff       	jmp    12f25 <zeos_show_clock+0x65>

00012ff0 <divide_error_routine>:
   12ff0:	55                   	push   %ebp
   12ff1:	89 e5                	mov    %esp,%ebp
   12ff3:	83 ec 14             	sub    $0x14,%esp
   12ff6:	68 d3 3a 01 00       	push   $0x13ad3
   12ffb:	e8 70 d5 ff ff       	call   10570 <printk>
   13000:	83 c4 10             	add    $0x10,%esp
   13003:	eb fe                	jmp    13003 <divide_error_routine+0x13>
   13005:	8d b4 26 00 00 00 00 	lea    0x0(%esi,%eiz,1),%esi
   1300c:	8d 74 26 00          	lea    0x0(%esi,%eiz,1),%esi

00013010 <debug_routine>:
   13010:	55                   	push   %ebp
   13011:	89 e5                	mov    %esp,%ebp
   13013:	83 ec 14             	sub    $0x14,%esp
   13016:	68 e8 3a 01 00       	push   $0x13ae8
   1301b:	e8 50 d5 ff ff       	call   10570 <printk>
   13020:	83 c4 10             	add    $0x10,%esp
   13023:	eb fe                	jmp    13023 <debug_routine+0x13>
   13025:	8d b4 26 00 00 00 00 	lea    0x0(%esi,%eiz,1),%esi
   1302c:	8d 74 26 00          	lea    0x0(%esi,%eiz,1),%esi

00013030 <nm1_routine>:
   13030:	55                   	push   %ebp
   13031:	89 e5                	mov    %esp,%ebp
   13033:	83 ec 14             	sub    $0x14,%esp
   13036:	68 f6 3a 01 00       	push   $0x13af6
   1303b:	e8 30 d5 ff ff       	call   10570 <printk>
   13040:	83 c4 10             	add    $0x10,%esp
   13043:	eb fe                	jmp    13043 <nm1_routine+0x13>
   13045:	8d b4 26 00 00 00 00 	lea    0x0(%esi,%eiz,1),%esi
   1304c:	8d 74 26 00          	lea    0x0(%esi,%eiz,1),%esi

00013050 <breakpoint_routine>:
   13050:	55                   	push   %ebp
   13051:	89 e5                	mov    %esp,%ebp
   13053:	83 ec 14             	sub    $0x14,%esp
   13056:	68 02 3b 01 00       	push   $0x13b02
   1305b:	e8 10 d5 ff ff       	call   10570 <printk>
   13060:	83 c4 10             	add    $0x10,%esp
   13063:	eb fe                	jmp    13063 <breakpoint_routine+0x13>
   13065:	8d b4 26 00 00 00 00 	lea    0x0(%esi,%eiz,1),%esi
   1306c:	8d 74 26 00          	lea    0x0(%esi,%eiz,1),%esi

00013070 <overflow_routine>:
   13070:	55                   	push   %ebp
   13071:	89 e5                	mov    %esp,%ebp
   13073:	83 ec 14             	sub    $0x14,%esp
   13076:	68 15 3b 01 00       	push   $0x13b15
   1307b:	e8 f0 d4 ff ff       	call   10570 <printk>
   13080:	83 c4 10             	add    $0x10,%esp
   13083:	eb fe                	jmp    13083 <overflow_routine+0x13>
   13085:	8d b4 26 00 00 00 00 	lea    0x0(%esi,%eiz,1),%esi
   1308c:	8d 74 26 00          	lea    0x0(%esi,%eiz,1),%esi

00013090 <bounds_check_routine>:
   13090:	55                   	push   %ebp
   13091:	89 e5                	mov    %esp,%ebp
   13093:	83 ec 14             	sub    $0x14,%esp
   13096:	68 26 3b 01 00       	push   $0x13b26
   1309b:	e8 d0 d4 ff ff       	call   10570 <printk>
   130a0:	83 c4 10             	add    $0x10,%esp
   130a3:	eb fe                	jmp    130a3 <bounds_check_routine+0x13>
   130a5:	8d b4 26 00 00 00 00 	lea    0x0(%esi,%eiz,1),%esi
   130ac:	8d 74 26 00          	lea    0x0(%esi,%eiz,1),%esi

000130b0 <invalid_opcode_routine>:
   130b0:	55                   	push   %ebp
   130b1:	89 e5                	mov    %esp,%ebp
   130b3:	83 ec 14             	sub    $0x14,%esp
   130b6:	68 3b 3b 01 00       	push   $0x13b3b
   130bb:	e8 b0 d4 ff ff       	call   10570 <printk>
   130c0:	83 c4 10             	add    $0x10,%esp
   130c3:	eb fe                	jmp    130c3 <invalid_opcode_routine+0x13>
   130c5:	8d b4 26 00 00 00 00 	lea    0x0(%esi,%eiz,1),%esi
   130cc:	8d 74 26 00          	lea    0x0(%esi,%eiz,1),%esi

000130d0 <device_not_available_routine>:
   130d0:	55                   	push   %ebp
   130d1:	89 e5                	mov    %esp,%ebp
   130d3:	83 ec 14             	sub    $0x14,%esp
   130d6:	68 52 3b 01 00       	push   $0x13b52
   130db:	e8 90 d4 ff ff       	call   10570 <printk>
   130e0:	83 c4 10             	add    $0x10,%esp
   130e3:	eb fe                	jmp    130e3 <device_not_available_routine+0x13>
   130e5:	8d b4 26 00 00 00 00 	lea    0x0(%esi,%eiz,1),%esi
   130ec:	8d 74 26 00          	lea    0x0(%esi,%eiz,1),%esi

000130f0 <double_fault_routine>:
   130f0:	55                   	push   %ebp
   130f1:	89 e5                	mov    %esp,%ebp
   130f3:	83 ec 14             	sub    $0x14,%esp
   130f6:	68 6f 3b 01 00       	push   $0x13b6f
   130fb:	e8 70 d4 ff ff       	call   10570 <printk>
   13100:	83 c4 10             	add    $0x10,%esp
   13103:	eb fe                	jmp    13103 <double_fault_routine+0x13>
   13105:	8d b4 26 00 00 00 00 	lea    0x0(%esi,%eiz,1),%esi
   1310c:	8d 74 26 00          	lea    0x0(%esi,%eiz,1),%esi

00013110 <coprocessor_segment_overrun_routine>:
   13110:	55                   	push   %ebp
   13111:	89 e5                	mov    %esp,%ebp
   13113:	83 ec 14             	sub    $0x14,%esp
   13116:	68 e4 4e 01 00       	push   $0x14ee4
   1311b:	e8 50 d4 ff ff       	call   10570 <printk>
   13120:	83 c4 10             	add    $0x10,%esp
   13123:	eb fe                	jmp    13123 <coprocessor_segment_overrun_routine+0x13>
   13125:	8d b4 26 00 00 00 00 	lea    0x0(%esi,%eiz,1),%esi
   1312c:	8d 74 26 00          	lea    0x0(%esi,%eiz,1),%esi

00013130 <invalid_tss_routine>:
   13130:	55                   	push   %ebp
   13131:	89 e5                	mov    %esp,%ebp
   13133:	83 ec 14             	sub    $0x14,%esp
   13136:	68 7e 3b 01 00       	push   $0x13b7e
   1313b:	e8 30 d4 ff ff       	call   10570 <printk>
   13140:	83 c4 10             	add    $0x10,%esp
   13143:	eb fe                	jmp    13143 <invalid_tss_routine+0x13>
   13145:	8d b4 26 00 00 00 00 	lea    0x0(%esi,%eiz,1),%esi
   1314c:	8d 74 26 00          	lea    0x0(%esi,%eiz,1),%esi

00013150 <segment_not_present_routine>:
   13150:	55                   	push   %ebp
   13151:	89 e5                	mov    %esp,%ebp
   13153:	83 ec 14             	sub    $0x14,%esp
   13156:	68 92 3b 01 00       	push   $0x13b92
   1315b:	e8 10 d4 ff ff       	call   10570 <printk>
   13160:	83 c4 10             	add    $0x10,%esp
   13163:	eb fe                	jmp    13163 <segment_not_present_routine+0x13>
   13165:	8d b4 26 00 00 00 00 	lea    0x0(%esi,%eiz,1),%esi
   1316c:	8d 74 26 00          	lea    0x0(%esi,%eiz,1),%esi

00013170 <stack_exception_routine>:
   13170:	55                   	push   %ebp
   13171:	89 e5                	mov    %esp,%ebp
   13173:	83 ec 14             	sub    $0x14,%esp
   13176:	68 ae 3b 01 00       	push   $0x13bae
   1317b:	e8 f0 d3 ff ff       	call   10570 <printk>
   13180:	83 c4 10             	add    $0x10,%esp
   13183:	eb fe                	jmp    13183 <stack_exception_routine+0x13>
   13185:	8d b4 26 00 00 00 00 	lea    0x0(%esi,%eiz,1),%esi
   1318c:	8d 74 26 00          	lea    0x0(%esi,%eiz,1),%esi

00013190 <general_protection_routine>:
   13190:	55                   	push   %ebp
   13191:	89 e5                	mov    %esp,%ebp
   13193:	83 ec 14             	sub    $0x14,%esp
   13196:	68 c6 3b 01 00       	push   $0x13bc6
   1319b:	e8 d0 d3 ff ff       	call   10570 <printk>
   131a0:	83 c4 10             	add    $0x10,%esp
   131a3:	eb fe                	jmp    131a3 <general_protection_routine+0x13>
   131a5:	8d b4 26 00 00 00 00 	lea    0x0(%esi,%eiz,1),%esi
   131ac:	8d 74 26 00          	lea    0x0(%esi,%eiz,1),%esi

000131b0 <page_fault_routine>:
   131b0:	55                   	push   %ebp
   131b1:	89 e5                	mov    %esp,%ebp
   131b3:	83 ec 14             	sub    $0x14,%esp
   131b6:	68 e1 3b 01 00       	push   $0x13be1
   131bb:	e8 b0 d3 ff ff       	call   10570 <printk>
   131c0:	83 c4 10             	add    $0x10,%esp
   131c3:	eb fe                	jmp    131c3 <page_fault_routine+0x13>
   131c5:	8d b4 26 00 00 00 00 	lea    0x0(%esi,%eiz,1),%esi
   131cc:	8d 74 26 00          	lea    0x0(%esi,%eiz,1),%esi

000131d0 <intel_reserved_routine>:
   131d0:	55                   	push   %ebp
   131d1:	89 e5                	mov    %esp,%ebp
   131d3:	83 ec 14             	sub    $0x14,%esp
   131d6:	68 ee 3b 01 00       	push   $0x13bee
   131db:	e8 90 d3 ff ff       	call   10570 <printk>
   131e0:	83 c4 10             	add    $0x10,%esp
   131e3:	eb fe                	jmp    131e3 <intel_reserved_routine+0x13>
   131e5:	8d b4 26 00 00 00 00 	lea    0x0(%esi,%eiz,1),%esi
   131ec:	8d 74 26 00          	lea    0x0(%esi,%eiz,1),%esi

000131f0 <floating_point_error_routine>:
   131f0:	55                   	push   %ebp
   131f1:	89 e5                	mov    %esp,%ebp
   131f3:	83 ec 14             	sub    $0x14,%esp
   131f6:	68 05 3c 01 00       	push   $0x13c05
   131fb:	e8 70 d3 ff ff       	call   10570 <printk>
   13200:	83 c4 10             	add    $0x10,%esp
   13203:	eb fe                	jmp    13203 <floating_point_error_routine+0x13>
   13205:	8d b4 26 00 00 00 00 	lea    0x0(%esi,%eiz,1),%esi
   1320c:	8d 74 26 00          	lea    0x0(%esi,%eiz,1),%esi

00013210 <alignment_check_routine>:
   13210:	55                   	push   %ebp
   13211:	89 e5                	mov    %esp,%ebp
   13213:	83 ec 14             	sub    $0x14,%esp
   13216:	68 1c 3c 01 00       	push   $0x13c1c
   1321b:	e8 50 d3 ff ff       	call   10570 <printk>
   13220:	83 c4 10             	add    $0x10,%esp
   13223:	eb fe                	jmp    13223 <alignment_check_routine+0x13>
   13225:	8d b4 26 00 00 00 00 	lea    0x0(%esi,%eiz,1),%esi
   1322c:	8d 74 26 00          	lea    0x0(%esi,%eiz,1),%esi

00013230 <set_handlers>:
   13230:	55                   	push   %ebp
   13231:	89 e5                	mov    %esp,%ebp
   13233:	83 ec 0c             	sub    $0xc,%esp
   13236:	6a 00                	push   $0x0
   13238:	68 6a 33 01 00       	push   $0x1336a
   1323d:	6a 00                	push   $0x0
   1323f:	e8 8c ce ff ff       	call   100d0 <setInterruptHandler>
   13244:	83 c4 0c             	add    $0xc,%esp
   13247:	6a 00                	push   $0x0
   13249:	68 9f 33 01 00       	push   $0x1339f
   1324e:	6a 01                	push   $0x1
   13250:	e8 7b ce ff ff       	call   100d0 <setInterruptHandler>
   13255:	83 c4 0c             	add    $0xc,%esp
   13258:	6a 00                	push   $0x0
   1325a:	68 d4 33 01 00       	push   $0x133d4
   1325f:	6a 02                	push   $0x2
   13261:	e8 6a ce ff ff       	call   100d0 <setInterruptHandler>
   13266:	83 c4 0c             	add    $0xc,%esp
   13269:	6a 00                	push   $0x0
   1326b:	68 09 34 01 00       	push   $0x13409
   13270:	6a 03                	push   $0x3
   13272:	e8 59 ce ff ff       	call   100d0 <setInterruptHandler>
   13277:	83 c4 0c             	add    $0xc,%esp
   1327a:	6a 00                	push   $0x0
   1327c:	68 3e 34 01 00       	push   $0x1343e
   13281:	6a 04                	push   $0x4
   13283:	e8 48 ce ff ff       	call   100d0 <setInterruptHandler>
   13288:	83 c4 0c             	add    $0xc,%esp
   1328b:	6a 00                	push   $0x0
   1328d:	68 73 34 01 00       	push   $0x13473
   13292:	6a 05                	push   $0x5
   13294:	e8 37 ce ff ff       	call   100d0 <setInterruptHandler>
   13299:	83 c4 0c             	add    $0xc,%esp
   1329c:	6a 00                	push   $0x0
   1329e:	68 a8 34 01 00       	push   $0x134a8
   132a3:	6a 06                	push   $0x6
   132a5:	e8 26 ce ff ff       	call   100d0 <setInterruptHandler>
   132aa:	83 c4 0c             	add    $0xc,%esp
   132ad:	6a 00                	push   $0x0
   132af:	68 dd 34 01 00       	push   $0x134dd
   132b4:	6a 07                	push   $0x7
   132b6:	e8 15 ce ff ff       	call   100d0 <setInterruptHandler>
   132bb:	83 c4 0c             	add    $0xc,%esp
   132be:	6a 00                	push   $0x0
   132c0:	68 12 35 01 00       	push   $0x13512
   132c5:	6a 08                	push   $0x8
   132c7:	e8 04 ce ff ff       	call   100d0 <setInterruptHandler>
   132cc:	83 c4 0c             	add    $0xc,%esp
   132cf:	6a 00                	push   $0x0
   132d1:	68 47 35 01 00       	push   $0x13547
   132d6:	6a 09                	push   $0x9
   132d8:	e8 f3 cd ff ff       	call   100d0 <setInterruptHandler>
   132dd:	83 c4 0c             	add    $0xc,%esp
   132e0:	6a 00                	push   $0x0
   132e2:	68 7c 35 01 00       	push   $0x1357c
   132e7:	6a 0a                	push   $0xa
   132e9:	e8 e2 cd ff ff       	call   100d0 <setInterruptHandler>
   132ee:	83 c4 0c             	add    $0xc,%esp
   132f1:	6a 00                	push   $0x0
   132f3:	68 b1 35 01 00       	push   $0x135b1
   132f8:	6a 0b                	push   $0xb
   132fa:	e8 d1 cd ff ff       	call   100d0 <setInterruptHandler>
   132ff:	83 c4 0c             	add    $0xc,%esp
   13302:	6a 00                	push   $0x0
   13304:	68 e6 35 01 00       	push   $0x135e6
   13309:	6a 0c                	push   $0xc
   1330b:	e8 c0 cd ff ff       	call   100d0 <setInterruptHandler>
   13310:	83 c4 0c             	add    $0xc,%esp
   13313:	6a 00                	push   $0x0
   13315:	68 1b 36 01 00       	push   $0x1361b
   1331a:	6a 0d                	push   $0xd
   1331c:	e8 af cd ff ff       	call   100d0 <setInterruptHandler>
   13321:	83 c4 0c             	add    $0xc,%esp
   13324:	6a 00                	push   $0x0
   13326:	68 50 36 01 00       	push   $0x13650
   1332b:	6a 0e                	push   $0xe
   1332d:	e8 9e cd ff ff       	call   100d0 <setInterruptHandler>
   13332:	83 c4 0c             	add    $0xc,%esp
   13335:	6a 00                	push   $0x0
   13337:	68 85 36 01 00       	push   $0x13685
   1333c:	6a 0f                	push   $0xf
   1333e:	e8 8d cd ff ff       	call   100d0 <setInterruptHandler>
   13343:	83 c4 0c             	add    $0xc,%esp
   13346:	6a 00                	push   $0x0
   13348:	68 ba 36 01 00       	push   $0x136ba
   1334d:	6a 10                	push   $0x10
   1334f:	e8 7c cd ff ff       	call   100d0 <setInterruptHandler>
   13354:	83 c4 0c             	add    $0xc,%esp
   13357:	6a 00                	push   $0x0
   13359:	68 ef 36 01 00       	push   $0x136ef
   1335e:	6a 11                	push   $0x11
   13360:	e8 6b cd ff ff       	call   100d0 <setInterruptHandler>
   13365:	83 c4 10             	add    $0x10,%esp
   13368:	c9                   	leave
   13369:	c3                   	ret

0001336a <divide_error_handler>:
   1336a:	0f a8                	push   %gs
   1336c:	0f a0                	push   %fs
   1336e:	06                   	push   %es
   1336f:	1e                   	push   %ds
   13370:	50                   	push   %eax
   13371:	55                   	push   %ebp
   13372:	57                   	push   %edi
   13373:	56                   	push   %esi
   13374:	52                   	push   %edx
   13375:	51                   	push   %ecx
   13376:	53                   	push   %ebx
   13377:	ba 18 00 00 00       	mov    $0x18,%edx
   1337c:	8e da                	mov    %edx,%ds
   1337e:	8e c2                	mov    %edx,%es
   13380:	50                   	push   %eax
   13381:	e8 ca d5 ff ff       	call   10950 <user2system>
   13386:	58                   	pop    %eax
   13387:	e8 64 fc ff ff       	call   12ff0 <divide_error_routine>
   1338c:	e8 ef d5 ff ff       	call   10980 <system2user>
   13391:	5b                   	pop    %ebx
   13392:	59                   	pop    %ecx
   13393:	5a                   	pop    %edx
   13394:	5e                   	pop    %esi
   13395:	5f                   	pop    %edi
   13396:	5d                   	pop    %ebp
   13397:	58                   	pop    %eax
   13398:	1f                   	pop    %ds
   13399:	07                   	pop    %es
   1339a:	0f a1                	pop    %fs
   1339c:	0f a9                	pop    %gs
   1339e:	cf                   	iret

0001339f <debug_handler>:
   1339f:	0f a8                	push   %gs
   133a1:	0f a0                	push   %fs
   133a3:	06                   	push   %es
   133a4:	1e                   	push   %ds
   133a5:	50                   	push   %eax
   133a6:	55                   	push   %ebp
   133a7:	57                   	push   %edi
   133a8:	56                   	push   %esi
   133a9:	52                   	push   %edx
   133aa:	51                   	push   %ecx
   133ab:	53                   	push   %ebx
   133ac:	ba 18 00 00 00       	mov    $0x18,%edx
   133b1:	8e da                	mov    %edx,%ds
   133b3:	8e c2                	mov    %edx,%es
   133b5:	50                   	push   %eax
   133b6:	e8 95 d5 ff ff       	call   10950 <user2system>
   133bb:	58                   	pop    %eax
   133bc:	e8 4f fc ff ff       	call   13010 <debug_routine>
   133c1:	e8 ba d5 ff ff       	call   10980 <system2user>
   133c6:	5b                   	pop    %ebx
   133c7:	59                   	pop    %ecx
   133c8:	5a                   	pop    %edx
   133c9:	5e                   	pop    %esi
   133ca:	5f                   	pop    %edi
   133cb:	5d                   	pop    %ebp
   133cc:	58                   	pop    %eax
   133cd:	1f                   	pop    %ds
   133ce:	07                   	pop    %es
   133cf:	0f a1                	pop    %fs
   133d1:	0f a9                	pop    %gs
   133d3:	cf                   	iret

000133d4 <nm1_handler>:
   133d4:	0f a8                	push   %gs
   133d6:	0f a0                	push   %fs
   133d8:	06                   	push   %es
   133d9:	1e                   	push   %ds
   133da:	50                   	push   %eax
   133db:	55                   	push   %ebp
   133dc:	57                   	push   %edi
   133dd:	56                   	push   %esi
   133de:	52                   	push   %edx
   133df:	51                   	push   %ecx
   133e0:	53                   	push   %ebx
   133e1:	ba 18 00 00 00       	mov    $0x18,%edx
   133e6:	8e da                	mov    %edx,%ds
   133e8:	8e c2                	mov    %edx,%es
   133ea:	50                   	push   %eax
   133eb:	e8 60 d5 ff ff       	call   10950 <user2system>
   133f0:	58                   	pop    %eax
   133f1:	e8 3a fc ff ff       	call   13030 <nm1_routine>
   133f6:	e8 85 d5 ff ff       	call   10980 <system2user>
   133fb:	5b                   	pop    %ebx
   133fc:	59                   	pop    %ecx
   133fd:	5a                   	pop    %edx
   133fe:	5e                   	pop    %esi
   133ff:	5f                   	pop    %edi
   13400:	5d                   	pop    %ebp
   13401:	58                   	pop    %eax
   13402:	1f                   	pop    %ds
   13403:	07                   	pop    %es
   13404:	0f a1                	pop    %fs
   13406:	0f a9                	pop    %gs
   13408:	cf                   	iret

00013409 <breakpoint_handler>:
   13409:	0f a8                	push   %gs
   1340b:	0f a0                	push   %fs
   1340d:	06                   	push   %es
   1340e:	1e                   	push   %ds
   1340f:	50                   	push   %eax
   13410:	55                   	push   %ebp
   13411:	57                   	push   %edi
   13412:	56                   	push   %esi
   13413:	52                   	push   %edx
   13414:	51                   	push   %ecx
   13415:	53                   	push   %ebx
   13416:	ba 18 00 00 00       	mov    $0x18,%edx
   1341b:	8e da                	mov    %edx,%ds
   1341d:	8e c2                	mov    %edx,%es
   1341f:	50                   	push   %eax
   13420:	e8 2b d5 ff ff       	call   10950 <user2system>
   13425:	58                   	pop    %eax
   13426:	e8 25 fc ff ff       	call   13050 <breakpoint_routine>
   1342b:	e8 50 d5 ff ff       	call   10980 <system2user>
   13430:	5b                   	pop    %ebx
   13431:	59                   	pop    %ecx
   13432:	5a                   	pop    %edx
   13433:	5e                   	pop    %esi
   13434:	5f                   	pop    %edi
   13435:	5d                   	pop    %ebp
   13436:	58                   	pop    %eax
   13437:	1f                   	pop    %ds
   13438:	07                   	pop    %es
   13439:	0f a1                	pop    %fs
   1343b:	0f a9                	pop    %gs
   1343d:	cf                   	iret

0001343e <overflow_handler>:
   1343e:	0f a8                	push   %gs
   13440:	0f a0                	push   %fs
   13442:	06                   	push   %es
   13443:	1e                   	push   %ds
   13444:	50                   	push   %eax
   13445:	55                   	push   %ebp
   13446:	57                   	push   %edi
   13447:	56                   	push   %esi
   13448:	52                   	push   %edx
   13449:	51                   	push   %ecx
   1344a:	53                   	push   %ebx
   1344b:	ba 18 00 00 00       	mov    $0x18,%edx
   13450:	8e da                	mov    %edx,%ds
   13452:	8e c2                	mov    %edx,%es
   13454:	50                   	push   %eax
   13455:	e8 f6 d4 ff ff       	call   10950 <user2system>
   1345a:	58                   	pop    %eax
   1345b:	e8 10 fc ff ff       	call   13070 <overflow_routine>
   13460:	e8 1b d5 ff ff       	call   10980 <system2user>
   13465:	5b                   	pop    %ebx
   13466:	59                   	pop    %ecx
   13467:	5a                   	pop    %edx
   13468:	5e                   	pop    %esi
   13469:	5f                   	pop    %edi
   1346a:	5d                   	pop    %ebp
   1346b:	58                   	pop    %eax
   1346c:	1f                   	pop    %ds
   1346d:	07                   	pop    %es
   1346e:	0f a1                	pop    %fs
   13470:	0f a9                	pop    %gs
   13472:	cf                   	iret

00013473 <bounds_check_handler>:
   13473:	0f a8                	push   %gs
   13475:	0f a0                	push   %fs
   13477:	06                   	push   %es
   13478:	1e                   	push   %ds
   13479:	50                   	push   %eax
   1347a:	55                   	push   %ebp
   1347b:	57                   	push   %edi
   1347c:	56                   	push   %esi
   1347d:	52                   	push   %edx
   1347e:	51                   	push   %ecx
   1347f:	53                   	push   %ebx
   13480:	ba 18 00 00 00       	mov    $0x18,%edx
   13485:	8e da                	mov    %edx,%ds
   13487:	8e c2                	mov    %edx,%es
   13489:	50                   	push   %eax
   1348a:	e8 c1 d4 ff ff       	call   10950 <user2system>
   1348f:	58                   	pop    %eax
   13490:	e8 fb fb ff ff       	call   13090 <bounds_check_routine>
   13495:	e8 e6 d4 ff ff       	call   10980 <system2user>
   1349a:	5b                   	pop    %ebx
   1349b:	59                   	pop    %ecx
   1349c:	5a                   	pop    %edx
   1349d:	5e                   	pop    %esi
   1349e:	5f                   	pop    %edi
   1349f:	5d                   	pop    %ebp
   134a0:	58                   	pop    %eax
   134a1:	1f                   	pop    %ds
   134a2:	07                   	pop    %es
   134a3:	0f a1                	pop    %fs
   134a5:	0f a9                	pop    %gs
   134a7:	cf                   	iret

000134a8 <invalid_opcode_handler>:
   134a8:	0f a8                	push   %gs
   134aa:	0f a0                	push   %fs
   134ac:	06                   	push   %es
   134ad:	1e                   	push   %ds
   134ae:	50                   	push   %eax
   134af:	55                   	push   %ebp
   134b0:	57                   	push   %edi
   134b1:	56                   	push   %esi
   134b2:	52                   	push   %edx
   134b3:	51                   	push   %ecx
   134b4:	53                   	push   %ebx
   134b5:	ba 18 00 00 00       	mov    $0x18,%edx
   134ba:	8e da                	mov    %edx,%ds
   134bc:	8e c2                	mov    %edx,%es
   134be:	50                   	push   %eax
   134bf:	e8 8c d4 ff ff       	call   10950 <user2system>
   134c4:	58                   	pop    %eax
   134c5:	e8 e6 fb ff ff       	call   130b0 <invalid_opcode_routine>
   134ca:	e8 b1 d4 ff ff       	call   10980 <system2user>
   134cf:	5b                   	pop    %ebx
   134d0:	59                   	pop    %ecx
   134d1:	5a                   	pop    %edx
   134d2:	5e                   	pop    %esi
   134d3:	5f                   	pop    %edi
   134d4:	5d                   	pop    %ebp
   134d5:	58                   	pop    %eax
   134d6:	1f                   	pop    %ds
   134d7:	07                   	pop    %es
   134d8:	0f a1                	pop    %fs
   134da:	0f a9                	pop    %gs
   134dc:	cf                   	iret

000134dd <device_not_available_handler>:
   134dd:	0f a8                	push   %gs
   134df:	0f a0                	push   %fs
   134e1:	06                   	push   %es
   134e2:	1e                   	push   %ds
   134e3:	50                   	push   %eax
   134e4:	55                   	push   %ebp
   134e5:	57                   	push   %edi
   134e6:	56                   	push   %esi
   134e7:	52                   	push   %edx
   134e8:	51                   	push   %ecx
   134e9:	53                   	push   %ebx
   134ea:	ba 18 00 00 00       	mov    $0x18,%edx
   134ef:	8e da                	mov    %edx,%ds
   134f1:	8e c2                	mov    %edx,%es
   134f3:	50                   	push   %eax
   134f4:	e8 57 d4 ff ff       	call   10950 <user2system>
   134f9:	58                   	pop    %eax
   134fa:	e8 d1 fb ff ff       	call   130d0 <device_not_available_routine>
   134ff:	e8 7c d4 ff ff       	call   10980 <system2user>
   13504:	5b                   	pop    %ebx
   13505:	59                   	pop    %ecx
   13506:	5a                   	pop    %edx
   13507:	5e                   	pop    %esi
   13508:	5f                   	pop    %edi
   13509:	5d                   	pop    %ebp
   1350a:	58                   	pop    %eax
   1350b:	1f                   	pop    %ds
   1350c:	07                   	pop    %es
   1350d:	0f a1                	pop    %fs
   1350f:	0f a9                	pop    %gs
   13511:	cf                   	iret

00013512 <double_fault_handler>:
   13512:	0f a8                	push   %gs
   13514:	0f a0                	push   %fs
   13516:	06                   	push   %es
   13517:	1e                   	push   %ds
   13518:	50                   	push   %eax
   13519:	55                   	push   %ebp
   1351a:	57                   	push   %edi
   1351b:	56                   	push   %esi
   1351c:	52                   	push   %edx
   1351d:	51                   	push   %ecx
   1351e:	53                   	push   %ebx
   1351f:	ba 18 00 00 00       	mov    $0x18,%edx
   13524:	8e da                	mov    %edx,%ds
   13526:	8e c2                	mov    %edx,%es
   13528:	50                   	push   %eax
   13529:	e8 22 d4 ff ff       	call   10950 <user2system>
   1352e:	58                   	pop    %eax
   1352f:	e8 bc fb ff ff       	call   130f0 <double_fault_routine>
   13534:	e8 47 d4 ff ff       	call   10980 <system2user>
   13539:	5b                   	pop    %ebx
   1353a:	59                   	pop    %ecx
   1353b:	5a                   	pop    %edx
   1353c:	5e                   	pop    %esi
   1353d:	5f                   	pop    %edi
   1353e:	5d                   	pop    %ebp
   1353f:	58                   	pop    %eax
   13540:	1f                   	pop    %ds
   13541:	07                   	pop    %es
   13542:	0f a1                	pop    %fs
   13544:	0f a9                	pop    %gs
   13546:	cf                   	iret

00013547 <coprocessor_segment_overrun_handler>:
   13547:	0f a8                	push   %gs
   13549:	0f a0                	push   %fs
   1354b:	06                   	push   %es
   1354c:	1e                   	push   %ds
   1354d:	50                   	push   %eax
   1354e:	55                   	push   %ebp
   1354f:	57                   	push   %edi
   13550:	56                   	push   %esi
   13551:	52                   	push   %edx
   13552:	51                   	push   %ecx
   13553:	53                   	push   %ebx
   13554:	ba 18 00 00 00       	mov    $0x18,%edx
   13559:	8e da                	mov    %edx,%ds
   1355b:	8e c2                	mov    %edx,%es
   1355d:	50                   	push   %eax
   1355e:	e8 ed d3 ff ff       	call   10950 <user2system>
   13563:	58                   	pop    %eax
   13564:	e8 a7 fb ff ff       	call   13110 <coprocessor_segment_overrun_routine>
   13569:	e8 12 d4 ff ff       	call   10980 <system2user>
   1356e:	5b                   	pop    %ebx
   1356f:	59                   	pop    %ecx
   13570:	5a                   	pop    %edx
   13571:	5e                   	pop    %esi
   13572:	5f                   	pop    %edi
   13573:	5d                   	pop    %ebp
   13574:	58                   	pop    %eax
   13575:	1f                   	pop    %ds
   13576:	07                   	pop    %es
   13577:	0f a1                	pop    %fs
   13579:	0f a9                	pop    %gs
   1357b:	cf                   	iret

0001357c <invalid_tss_handler>:
   1357c:	0f a8                	push   %gs
   1357e:	0f a0                	push   %fs
   13580:	06                   	push   %es
   13581:	1e                   	push   %ds
   13582:	50                   	push   %eax
   13583:	55                   	push   %ebp
   13584:	57                   	push   %edi
   13585:	56                   	push   %esi
   13586:	52                   	push   %edx
   13587:	51                   	push   %ecx
   13588:	53                   	push   %ebx
   13589:	ba 18 00 00 00       	mov    $0x18,%edx
   1358e:	8e da                	mov    %edx,%ds
   13590:	8e c2                	mov    %edx,%es
   13592:	50                   	push   %eax
   13593:	e8 b8 d3 ff ff       	call   10950 <user2system>
   13598:	58                   	pop    %eax
   13599:	e8 92 fb ff ff       	call   13130 <invalid_tss_routine>
   1359e:	e8 dd d3 ff ff       	call   10980 <system2user>
   135a3:	5b                   	pop    %ebx
   135a4:	59                   	pop    %ecx
   135a5:	5a                   	pop    %edx
   135a6:	5e                   	pop    %esi
   135a7:	5f                   	pop    %edi
   135a8:	5d                   	pop    %ebp
   135a9:	58                   	pop    %eax
   135aa:	1f                   	pop    %ds
   135ab:	07                   	pop    %es
   135ac:	0f a1                	pop    %fs
   135ae:	0f a9                	pop    %gs
   135b0:	cf                   	iret

000135b1 <segment_not_present_handler>:
   135b1:	0f a8                	push   %gs
   135b3:	0f a0                	push   %fs
   135b5:	06                   	push   %es
   135b6:	1e                   	push   %ds
   135b7:	50                   	push   %eax
   135b8:	55                   	push   %ebp
   135b9:	57                   	push   %edi
   135ba:	56                   	push   %esi
   135bb:	52                   	push   %edx
   135bc:	51                   	push   %ecx
   135bd:	53                   	push   %ebx
   135be:	ba 18 00 00 00       	mov    $0x18,%edx
   135c3:	8e da                	mov    %edx,%ds
   135c5:	8e c2                	mov    %edx,%es
   135c7:	50                   	push   %eax
   135c8:	e8 83 d3 ff ff       	call   10950 <user2system>
   135cd:	58                   	pop    %eax
   135ce:	e8 7d fb ff ff       	call   13150 <segment_not_present_routine>
   135d3:	e8 a8 d3 ff ff       	call   10980 <system2user>
   135d8:	5b                   	pop    %ebx
   135d9:	59                   	pop    %ecx
   135da:	5a                   	pop    %edx
   135db:	5e                   	pop    %esi
   135dc:	5f                   	pop    %edi
   135dd:	5d                   	pop    %ebp
   135de:	58                   	pop    %eax
   135df:	1f                   	pop    %ds
   135e0:	07                   	pop    %es
   135e1:	0f a1                	pop    %fs
   135e3:	0f a9                	pop    %gs
   135e5:	cf                   	iret

000135e6 <stack_exception_handler>:
   135e6:	0f a8                	push   %gs
   135e8:	0f a0                	push   %fs
   135ea:	06                   	push   %es
   135eb:	1e                   	push   %ds
   135ec:	50                   	push   %eax
   135ed:	55                   	push   %ebp
   135ee:	57                   	push   %edi
   135ef:	56                   	push   %esi
   135f0:	52                   	push   %edx
   135f1:	51                   	push   %ecx
   135f2:	53                   	push   %ebx
   135f3:	ba 18 00 00 00       	mov    $0x18,%edx
   135f8:	8e da                	mov    %edx,%ds
   135fa:	8e c2                	mov    %edx,%es
   135fc:	50                   	push   %eax
   135fd:	e8 4e d3 ff ff       	call   10950 <user2system>
   13602:	58                   	pop    %eax
   13603:	e8 68 fb ff ff       	call   13170 <stack_exception_routine>
   13608:	e8 73 d3 ff ff       	call   10980 <system2user>
   1360d:	5b                   	pop    %ebx
   1360e:	59                   	pop    %ecx
   1360f:	5a                   	pop    %edx
   13610:	5e                   	pop    %esi
   13611:	5f                   	pop    %edi
   13612:	5d                   	pop    %ebp
   13613:	58                   	pop    %eax
   13614:	1f                   	pop    %ds
   13615:	07                   	pop    %es
   13616:	0f a1                	pop    %fs
   13618:	0f a9                	pop    %gs
   1361a:	cf                   	iret

0001361b <general_protection_handler>:
   1361b:	0f a8                	push   %gs
   1361d:	0f a0                	push   %fs
   1361f:	06                   	push   %es
   13620:	1e                   	push   %ds
   13621:	50                   	push   %eax
   13622:	55                   	push   %ebp
   13623:	57                   	push   %edi
   13624:	56                   	push   %esi
   13625:	52                   	push   %edx
   13626:	51                   	push   %ecx
   13627:	53                   	push   %ebx
   13628:	ba 18 00 00 00       	mov    $0x18,%edx
   1362d:	8e da                	mov    %edx,%ds
   1362f:	8e c2                	mov    %edx,%es
   13631:	50                   	push   %eax
   13632:	e8 19 d3 ff ff       	call   10950 <user2system>
   13637:	58                   	pop    %eax
   13638:	e8 53 fb ff ff       	call   13190 <general_protection_routine>
   1363d:	e8 3e d3 ff ff       	call   10980 <system2user>
   13642:	5b                   	pop    %ebx
   13643:	59                   	pop    %ecx
   13644:	5a                   	pop    %edx
   13645:	5e                   	pop    %esi
   13646:	5f                   	pop    %edi
   13647:	5d                   	pop    %ebp
   13648:	58                   	pop    %eax
   13649:	1f                   	pop    %ds
   1364a:	07                   	pop    %es
   1364b:	0f a1                	pop    %fs
   1364d:	0f a9                	pop    %gs
   1364f:	cf                   	iret

00013650 <page_fault_handler>:
   13650:	0f a8                	push   %gs
   13652:	0f a0                	push   %fs
   13654:	06                   	push   %es
   13655:	1e                   	push   %ds
   13656:	50                   	push   %eax
   13657:	55                   	push   %ebp
   13658:	57                   	push   %edi
   13659:	56                   	push   %esi
   1365a:	52                   	push   %edx
   1365b:	51                   	push   %ecx
   1365c:	53                   	push   %ebx
   1365d:	ba 18 00 00 00       	mov    $0x18,%edx
   13662:	8e da                	mov    %edx,%ds
   13664:	8e c2                	mov    %edx,%es
   13666:	50                   	push   %eax
   13667:	e8 e4 d2 ff ff       	call   10950 <user2system>
   1366c:	58                   	pop    %eax
   1366d:	e8 3e fb ff ff       	call   131b0 <page_fault_routine>
   13672:	e8 09 d3 ff ff       	call   10980 <system2user>
   13677:	5b                   	pop    %ebx
   13678:	59                   	pop    %ecx
   13679:	5a                   	pop    %edx
   1367a:	5e                   	pop    %esi
   1367b:	5f                   	pop    %edi
   1367c:	5d                   	pop    %ebp
   1367d:	58                   	pop    %eax
   1367e:	1f                   	pop    %ds
   1367f:	07                   	pop    %es
   13680:	0f a1                	pop    %fs
   13682:	0f a9                	pop    %gs
   13684:	cf                   	iret

00013685 <intel_reserved_handler>:
   13685:	0f a8                	push   %gs
   13687:	0f a0                	push   %fs
   13689:	06                   	push   %es
   1368a:	1e                   	push   %ds
   1368b:	50                   	push   %eax
   1368c:	55                   	push   %ebp
   1368d:	57                   	push   %edi
   1368e:	56                   	push   %esi
   1368f:	52                   	push   %edx
   13690:	51                   	push   %ecx
   13691:	53                   	push   %ebx
   13692:	ba 18 00 00 00       	mov    $0x18,%edx
   13697:	8e da                	mov    %edx,%ds
   13699:	8e c2                	mov    %edx,%es
   1369b:	50                   	push   %eax
   1369c:	e8 af d2 ff ff       	call   10950 <user2system>
   136a1:	58                   	pop    %eax
   136a2:	e8 29 fb ff ff       	call   131d0 <intel_reserved_routine>
   136a7:	e8 d4 d2 ff ff       	call   10980 <system2user>
   136ac:	5b                   	pop    %ebx
   136ad:	59                   	pop    %ecx
   136ae:	5a                   	pop    %edx
   136af:	5e                   	pop    %esi
   136b0:	5f                   	pop    %edi
   136b1:	5d                   	pop    %ebp
   136b2:	58                   	pop    %eax
   136b3:	1f                   	pop    %ds
   136b4:	07                   	pop    %es
   136b5:	0f a1                	pop    %fs
   136b7:	0f a9                	pop    %gs
   136b9:	cf                   	iret

000136ba <floating_point_error_handler>:
   136ba:	0f a8                	push   %gs
   136bc:	0f a0                	push   %fs
   136be:	06                   	push   %es
   136bf:	1e                   	push   %ds
   136c0:	50                   	push   %eax
   136c1:	55                   	push   %ebp
   136c2:	57                   	push   %edi
   136c3:	56                   	push   %esi
   136c4:	52                   	push   %edx
   136c5:	51                   	push   %ecx
   136c6:	53                   	push   %ebx
   136c7:	ba 18 00 00 00       	mov    $0x18,%edx
   136cc:	8e da                	mov    %edx,%ds
   136ce:	8e c2                	mov    %edx,%es
   136d0:	50                   	push   %eax
   136d1:	e8 7a d2 ff ff       	call   10950 <user2system>
   136d6:	58                   	pop    %eax
   136d7:	e8 14 fb ff ff       	call   131f0 <floating_point_error_routine>
   136dc:	e8 9f d2 ff ff       	call   10980 <system2user>
   136e1:	5b                   	pop    %ebx
   136e2:	59                   	pop    %ecx
   136e3:	5a                   	pop    %edx
   136e4:	5e                   	pop    %esi
   136e5:	5f                   	pop    %edi
   136e6:	5d                   	pop    %ebp
   136e7:	58                   	pop    %eax
   136e8:	1f                   	pop    %ds
   136e9:	07                   	pop    %es
   136ea:	0f a1                	pop    %fs
   136ec:	0f a9                	pop    %gs
   136ee:	cf                   	iret

000136ef <alignment_check_handler>:
   136ef:	0f a8                	push   %gs
   136f1:	0f a0                	push   %fs
   136f3:	06                   	push   %es
   136f4:	1e                   	push   %ds
   136f5:	50                   	push   %eax
   136f6:	55                   	push   %ebp
   136f7:	57                   	push   %edi
   136f8:	56                   	push   %esi
   136f9:	52                   	push   %edx
   136fa:	51                   	push   %ecx
   136fb:	53                   	push   %ebx
   136fc:	ba 18 00 00 00       	mov    $0x18,%edx
   13701:	8e da                	mov    %edx,%ds
   13703:	8e c2                	mov    %edx,%es
   13705:	50                   	push   %eax
   13706:	e8 45 d2 ff ff       	call   10950 <user2system>
   1370b:	58                   	pop    %eax
   1370c:	e8 ff fa ff ff       	call   13210 <alignment_check_routine>
   13711:	e8 6a d2 ff ff       	call   10980 <system2user>
   13716:	5b                   	pop    %ebx
   13717:	59                   	pop    %ecx
   13718:	5a                   	pop    %edx
   13719:	5e                   	pop    %esi
   1371a:	5f                   	pop    %edi
   1371b:	5d                   	pop    %ebp
   1371c:	58                   	pop    %eax
   1371d:	1f                   	pop    %ds
   1371e:	07                   	pop    %es
   1371f:	0f a1                	pop    %fs
   13721:	0f a9                	pop    %gs
   13723:	cf                   	iret

Disassembly of section .text.unlikely:

00013724 <sys_exit.cold>:
   13724:	a1 00 00 00 00       	mov    0x0,%eax
   13729:	0f 0b                	ud2

0001372b <sys_clone.cold>:
   1372b:	a1 00 00 00 00       	mov    0x0,%eax
   13730:	0f 0b                	ud2
